Archive member included because of file (symbol)

/opt/poky/1.5.1/sysroots/cortexa9hf-vfp-neon-poky-linux-gnueabi/usr/lib/arm-poky-linux-gnueabi/4.8.1/libgcc.a(_udivsi3.o)
                              arch/arm/cpu/armv7/built-in.o (__aeabi_uidiv)
/opt/poky/1.5.1/sysroots/cortexa9hf-vfp-neon-poky-linux-gnueabi/usr/lib/arm-poky-linux-gnueabi/4.8.1/libgcc.a(_divsi3.o)
                              cmd/built-in.o (__aeabi_idiv)
/opt/poky/1.5.1/sysroots/cortexa9hf-vfp-neon-poky-linux-gnueabi/usr/lib/arm-poky-linux-gnueabi/4.8.1/libgcc.a(_lshrdi3.o)
                              fs/built-in.o (__aeabi_llsr)
/opt/poky/1.5.1/sysroots/cortexa9hf-vfp-neon-poky-linux-gnueabi/usr/lib/arm-poky-linux-gnueabi/4.8.1/libgcc.a(_ashldi3.o)
                              drivers/mmc/built-in.o (__aeabi_llsl)
/opt/poky/1.5.1/sysroots/cortexa9hf-vfp-neon-poky-linux-gnueabi/usr/lib/arm-poky-linux-gnueabi/4.8.1/libgcc.a(_dvmd_lnx.o)
                              /opt/poky/1.5.1/sysroots/cortexa9hf-vfp-neon-poky-linux-gnueabi/usr/lib/arm-poky-linux-gnueabi/4.8.1/libgcc.a(_udivsi3.o) (__aeabi_idiv0)

Discarded input sections

 .data          0x0000000000000000        0x0 arch/arm/cpu/armv7/start.o
 .bss           0x0000000000000000        0x0 arch/arm/cpu/armv7/start.o
 .text.v7_outer_cache_enable
                0x0000000000000000        0x4 arch/arm/cpu/armv7/built-in.o
 .text.v7_outer_cache_disable
                0x0000000000000000        0x4 arch/arm/cpu/armv7/built-in.o
 .text.v7_outer_cache_flush_all
                0x0000000000000000        0x4 arch/arm/cpu/armv7/built-in.o
 .text.v7_outer_cache_inval_all
                0x0000000000000000        0x4 arch/arm/cpu/armv7/built-in.o
 .text.v7_outer_cache_flush_range
                0x0000000000000000        0x4 arch/arm/cpu/armv7/built-in.o
 .text.v7_outer_cache_inval_range
                0x0000000000000000        0x4 arch/arm/cpu/armv7/built-in.o
 .text.v7_arch_cp15_set_l2aux_ctrl
                0x0000000000000000        0x8 arch/arm/cpu/armv7/built-in.o
 .text.v7_arch_cp15_set_acr
                0x0000000000000000        0x8 arch/arm/cpu/armv7/built-in.o
 .text.sdelay   0x0000000000000000        0xc arch/arm/cpu/armv7/built-in.o
 .text.wait_on_value
                0x0000000000000000       0x34 arch/arm/cpu/armv7/built-in.o
 .text.board_mmc_get_env_dev
                0x0000000000000000        0x8 arch/arm/cpu/armv7/built-in.o
 .text.enable_enet_clk
                0x0000000000000000       0x48 arch/arm/cpu/armv7/built-in.o
 .text.enable_uart_clk
                0x0000000000000000       0x40 arch/arm/cpu/armv7/built-in.o
 .text.enable_usdhc_clk
                0x0000000000000000       0x4c arch/arm/cpu/armv7/built-in.o
 .text.enable_spi_clk
                0x0000000000000000       0x44 arch/arm/cpu/armv7/built-in.o
 .text.enable_fec_anatop_clock
                0x0000000000000000       0xdc arch/arm/cpu/armv7/built-in.o
 .text.select_ldb_di_clock_source
                0x0000000000000000      0x174 arch/arm/cpu/armv7/built-in.o
 .data          0x0000000000000000        0x0 arch/arm/cpu/armv7/built-in.o
 .bss           0x0000000000000000        0x0 arch/arm/cpu/armv7/built-in.o
 .text          0x0000000000000000        0x0 arch/arm/imx-common/built-in.o
 .text.get_imx_reset_cause
                0x0000000000000000       0x10 arch/arm/imx-common/built-in.o
 .text.set_chipselect_size
                0x0000000000000000       0x84 arch/arm/imx-common/built-in.o
 .text.mxs_wait_mask_set
                0x0000000000000000       0x40 arch/arm/imx-common/built-in.o
 .text.mxs_wait_mask_clr
                0x0000000000000000       0x3c arch/arm/imx-common/built-in.o
 .text.mxs_reset_block
                0x0000000000000000       0x90 arch/arm/imx-common/built-in.o
 .data          0x0000000000000000        0x0 arch/arm/imx-common/built-in.o
 .bss           0x0000000000000000        0x0 arch/arm/imx-common/built-in.o
 .text.reset_misc
                0x0000000000000000        0x4 arch/arm/lib/built-in.o
 .text.enable_caches
                0x0000000000000000        0xc arch/arm/lib/built-in.o
 .text.invalidate_dcache_range
                0x0000000000000000        0x4 arch/arm/lib/built-in.o
 .text.flush_dcache_range
                0x0000000000000000        0x4 arch/arm/lib/built-in.o
 .text.flush_dcache_all
                0x0000000000000000        0xc arch/arm/lib/built-in.o
 .text.arm_init_before_mmu
                0x0000000000000000        0x4 arch/arm/lib/built-in.o
 .text.mmu_page_table_flush
                0x0000000000000000        0x4 arch/arm/lib/built-in.o
 .rodata.pl310  0x0000000000000000        0x4 arch/arm/lib/built-in.o
 .data          0x0000000000000000        0x0 arch/arm/lib/built-in.o
 .__secure_end  0x0000000000000000        0x0 arch/arm/lib/built-in.o
 .__secure_start
                0x0000000000000000        0x0 arch/arm/lib/built-in.o
 .bss           0x0000000000000000        0x0 arch/arm/lib/built-in.o
 .text          0x0000000000000000        0x0 board/freescale/common/built-in.o
 .data          0x0000000000000000        0x0 board/freescale/common/built-in.o
 .bss           0x0000000000000000        0x0 board/freescale/common/built-in.o
 .text          0x0000000000000000        0x0 board/freescale/mx6sabresd/built-in.o
 .data          0x0000000000000000        0x0 board/freescale/mx6sabresd/built-in.o
 .bss           0x0000000000000000        0x0 board/freescale/mx6sabresd/built-in.o
 .text          0x0000000000000000        0x0 cmd/built-in.o
 .text.bootz_setup
                0x0000000000000000       0x18 cmd/built-in.o
 .text.invalidate_icache_all
                0x0000000000000000        0xc cmd/built-in.o
 .text.flush_dcache_all
                0x0000000000000000        0xc cmd/built-in.o
 .data          0x0000000000000000        0x0 cmd/built-in.o
 .bss           0x0000000000000000        0x0 cmd/built-in.o
 .text          0x0000000000000000        0x0 common/built-in.o
 .text.hash_progressive_lookup_algo
                0x0000000000000000       0x3c common/built-in.o
 .text.hash_parse_string
                0x0000000000000000       0x68 common/built-in.o
 .text.hash_block
                0x0000000000000000       0x70 common/built-in.o
 .text.unset_local_var
                0x0000000000000000       0x9c common/built-in.o
 .text.arch_cpu_init
                0x0000000000000000        0x8 common/built-in.o
 .text.red_led_off
                0x0000000000000000        0x4 common/built-in.o
 .text.green_led_on
                0x0000000000000000        0x4 common/built-in.o
 .text.green_led_off
                0x0000000000000000        0x4 common/built-in.o
 .text.yellow_led_on
                0x0000000000000000        0x4 common/built-in.o
 .text.yellow_led_off
                0x0000000000000000        0x4 common/built-in.o
 .text.blue_led_on
                0x0000000000000000        0x4 common/built-in.o
 .text.blue_led_off
                0x0000000000000000        0x4 common/built-in.o
 .text.arch_reserve_stacks
                0x0000000000000000        0x8 common/built-in.o
 .text.power_init_board
                0x0000000000000000        0x8 common/built-in.o
 .text.board_flash_wp_on
                0x0000000000000000        0x8 common/built-in.o
 .text.fixup_cpu
                0x0000000000000000        0x8 common/built-in.o
 .text.checkboard
                0x0000000000000000        0x8 common/built-in.o
 .text.arch_preboot_os
                0x0000000000000000        0x4 common/built-in.o
 .text.env_flags_parse_varaccess_from_binflags
                0x0000000000000000       0x54 common/built-in.o
 .text.mmc_get_env_dev
                0x0000000000000000        0x8 common/built-in.o
 .text.of_bus_default_map
                0x0000000000000000       0xe8 common/built-in.o
 .text.fdt_read_prop
                0x0000000000000000       0x64 common/built-in.o
 .text.of_bus_default_count_cells
                0x0000000000000000       0x58 common/built-in.o
 .text.of_bus_default_translate
                0x0000000000000000       0xa0 common/built-in.o
 .text.fdt_getprop_u32_default_node
                0x0000000000000000       0x44 common/built-in.o
 .text.fdt_getprop_u32_default
                0x0000000000000000       0x3c common/built-in.o
 .text.do_fixup_by_path_u32
                0x0000000000000000       0x2c common/built-in.o
 .text.do_fixup_by_prop
                0x0000000000000000       0x98 common/built-in.o
 .text.do_fixup_by_prop_u32
                0x0000000000000000       0x3c common/built-in.o
 .text.do_fixup_by_compat
                0x0000000000000000       0x88 common/built-in.o
 .text.do_fixup_by_compat_u32
                0x0000000000000000       0x2c common/built-in.o
 .text.fdt_pci_dma_ranges
                0x0000000000000000      0x128 common/built-in.o
 .text.fdt_increase_size
                0x0000000000000000       0x14 common/built-in.o
 .text.fdt_del_node_and_alias
                0x0000000000000000       0x44 common/built-in.o
 .text.fdt_translate_address
                0x0000000000000000      0x294 common/built-in.o
 .text.fdt_node_offset_by_compat_reg
                0x0000000000000000       0x88 common/built-in.o
 .text.fdt_alloc_phandle
                0x0000000000000000       0x58 common/built-in.o
 .text.fdt_set_phandle
                0x0000000000000000       0x60 common/built-in.o
 .text.fdt_create_phandle
                0x0000000000000000       0x64 common/built-in.o
 .text.fdt_set_node_status
                0x0000000000000000      0x108 common/built-in.o
 .text.fdt_set_status_by_alias
                0x0000000000000000       0x2c common/built-in.o
 .text.fdt_add_edid
                0x0000000000000000       0xac common/built-in.o
 .text.fdt_verify_alias_address
                0x0000000000000000       0xcc common/built-in.o
 .text.fdt_get_base_address
                0x0000000000000000       0x58 common/built-in.o
 .text.fdt_read_range
                0x0000000000000000      0x144 common/built-in.o
 .text.fdt_setup_simplefb_node
                0x0000000000000000      0x200 common/built-in.o
 .text.fdt_fixup_display
                0x0000000000000000       0xd8 common/built-in.o
 .text.legacy_miiphy_read
                0x0000000000000000       0x34 common/built-in.o
 .text.legacy_miiphy_write
                0x0000000000000000       0x24 common/built-in.o
 .text.miiphy_register
                0x0000000000000000      0x124 common/built-in.o
 .text.mdio_free
                0x0000000000000000        0x4 common/built-in.o
 .text.usb_detect_change
                0x0000000000000000       0x68 common/built-in.o
 .text.usb_submit_int_msg
                0x0000000000000000        0x4 common/built-in.o
 .text.usb_set_protocol
                0x0000000000000000       0x4c common/built-in.o
 .text.usb_set_idle
                0x0000000000000000       0x50 common/built-in.o
 .text.usb_get_report
                0x0000000000000000       0x58 common/built-in.o
 .text.usb_get_class_descriptor
                0x0000000000000000       0x58 common/built-in.o
 .text.usb_stor_reset
                0x0000000000000000       0x14 common/built-in.o
 .text.bounce_buffer_start
                0x0000000000000000       0x80 common/built-in.o
 .text.bounce_buffer_stop
                0x0000000000000000       0x54 common/built-in.o
 .text.fputs    0x0000000000000000       0x24 common/built-in.o
 .text.fprintf  0x0000000000000000       0x4c common/built-in.o
 .text.disable_ctrlc
                0x0000000000000000       0x18 common/built-in.o
 .text.valloc   0x0000000000000000        0xc common/built-in.o
 .text.pvalloc  0x0000000000000000       0x18 common/built-in.o
 .text.cfree    0x0000000000000000        0x4 common/built-in.o
 .text.malloc_usable_size
                0x0000000000000000       0x3c common/built-in.o
 .text.mallopt  0x0000000000000000       0x68 common/built-in.o
 .text.memalign_simple
                0x0000000000000000       0x48 common/built-in.o
 .text.genimg_get_short_name
                0x0000000000000000       0x1c common/built-in.o
 .text.genimg_get_type_short_name
                0x0000000000000000       0x10 common/built-in.o
 .text.genimg_get_comp_short_name
                0x0000000000000000       0x10 common/built-in.o
 .text.genimg_get_os_short_name
                0x0000000000000000       0x10 common/built-in.o
 .text.genimg_get_arch_short_name
                0x0000000000000000       0x10 common/built-in.o
 .text.get_table_entry_id
                0x0000000000000000       0x50 common/built-in.o
 .text.genimg_get_os_id
                0x0000000000000000       0x18 common/built-in.o
 .text.genimg_get_arch_id
                0x0000000000000000       0x18 common/built-in.o
 .text.genimg_get_type_id
                0x0000000000000000       0x18 common/built-in.o
 .text.genimg_get_comp_id
                0x0000000000000000       0x18 common/built-in.o
 .text.genimg_get_kernel_addr
                0x0000000000000000       0x24 common/built-in.o
 .text.arch_fixup_fdt
                0x0000000000000000        0x8 common/built-in.o
 .text.get_ram_size
                0x0000000000000000       0xfc common/built-in.o
 .text.stdio_init
                0x0000000000000000       0x14 common/built-in.o
 .text.cli_simple_parse_line
                0x0000000000000000       0x88 common/built-in.o
 .text.cli_simple_process_macros
                0x0000000000000000      0x1ec common/built-in.o
 .text.cli_simple_run_command
                0x0000000000000000      0x154 common/built-in.o
 .text.cli_simple_loop
                0x0000000000000000       0x7c common/built-in.o
 .text.cli_simple_run_command_list
                0x0000000000000000       0x70 common/built-in.o
 .text.run_command_repeatable
                0x0000000000000000       0x18 common/built-in.o
 .rodata.__FUNCTION__.9162
                0x0000000000000000       0x17 common/built-in.o
 .rodata.__FUNCTION__.9439
                0x0000000000000000       0x10 common/built-in.o
 .data          0x0000000000000000        0x0 common/built-in.o
 .data.of_busses
                0x0000000000000000       0x18 common/built-in.o
 .data.mmap_threshold
                0x0000000000000000        0x4 common/built-in.o
 .bss           0x0000000000000000        0x0 common/built-in.o
 .bss.env_ptr   0x0000000000000000        0x4 common/built-in.o
 .bss.n_mmaps_max
                0x0000000000000000        0x4 common/built-in.o
 .bss.save_addr
                0x0000000000000000        0x4 common/built-in.o
 .bss.save_size
                0x0000000000000000        0x4 common/built-in.o
 .bss.lastcommand.7370
                0x0000000000000000      0x201 common/built-in.o
 .text          0x0000000000000000        0x0 disk/built-in.o
 .data          0x0000000000000000        0x0 disk/built-in.o
 .bss           0x0000000000000000        0x0 disk/built-in.o
 .text          0x0000000000000000        0x0 drivers/built-in.o
 .text._device_find_global_by_of_offset
                0x0000000000000000       0x50 drivers/built-in.o
 .text.dev_get_parent_platdata
                0x0000000000000000       0x30 drivers/built-in.o
 .text.dev_get_uclass_platdata
                0x0000000000000000       0x30 drivers/built-in.o
 .text.dev_get_uclass_priv
                0x0000000000000000       0x30 drivers/built-in.o
 .text.dev_get_parent_priv
                0x0000000000000000       0x30 drivers/built-in.o
 .text.device_get_child
                0x0000000000000000       0x50 drivers/built-in.o
 .text.device_find_child_by_seq
                0x0000000000000000       0x5c drivers/built-in.o
 .text.device_get_child_by_seq
                0x0000000000000000       0x60 drivers/built-in.o
 .text.device_find_child_by_of_offset
                0x0000000000000000       0x44 drivers/built-in.o
 .text.device_get_child_by_of_offset
                0x0000000000000000       0x3c drivers/built-in.o
 .text.device_get_global_by_of_offset
                0x0000000000000000       0x40 drivers/built-in.o
 .text.device_find_first_child
                0x0000000000000000       0x1c drivers/built-in.o
 .text.device_find_next_child
                0x0000000000000000       0x28 drivers/built-in.o
 .text.dev_get_parent
                0x0000000000000000        0x8 drivers/built-in.o
 .text.dev_get_driver_data
                0x0000000000000000        0x8 drivers/built-in.o
 .text.dev_get_driver_ops
                0x0000000000000000       0x10 drivers/built-in.o
 .text.device_get_uclass_id
                0x0000000000000000       0x10 drivers/built-in.o
 .text.dev_get_uclass_name
                0x0000000000000000       0x14 drivers/built-in.o
 .text.dev_get_addr_index
                0x0000000000000000        0x8 drivers/built-in.o
 .text.dev_get_addr_name
                0x0000000000000000        0x8 drivers/built-in.o
 .text.dev_get_addr
                0x0000000000000000        0x8 drivers/built-in.o
 .text.dev_get_addr_ptr
                0x0000000000000000        0x8 drivers/built-in.o
 .text.device_has_children
                0x0000000000000000       0x14 drivers/built-in.o
 .text.device_has_active_children
                0x0000000000000000       0x3c drivers/built-in.o
 .text.device_is_last_sibling
                0x0000000000000000       0x2c drivers/built-in.o
 .text.device_set_name_alloced
                0x0000000000000000       0x10 drivers/built-in.o
 .text.device_set_name
                0x0000000000000000       0x30 drivers/built-in.o
 .text.of_device_is_compatible
                0x0000000000000000       0x24 drivers/built-in.o
 .text.of_machine_is_compatible
                0x0000000000000000       0x20 drivers/built-in.o
 .text.device_bind_driver_to_node
                0x0000000000000000       0x4c drivers/built-in.o
 .text.device_bind_driver
                0x0000000000000000       0x18 drivers/built-in.o
 .text.dm_get_translation_offset
                0x0000000000000000       0x14 drivers/built-in.o
 .text.dm_set_translation_offset
                0x0000000000000000       0x18 drivers/built-in.o
 .text.dm_uninit
                0x0000000000000000       0x1c drivers/built-in.o
 .text.uclass_destroy
                0x0000000000000000       0x98 drivers/built-in.o
 .text.uclass_find_first_device
                0x0000000000000000       0x3c drivers/built-in.o
 .text.uclass_find_next_device
                0x0000000000000000       0x2c drivers/built-in.o
 .text.uclass_find_device_by_name
                0x0000000000000000       0x8c drivers/built-in.o
 .text.uclass_find_device_by_of_offset
                0x0000000000000000       0x68 drivers/built-in.o
 .text.uclass_get_device_by_name
                0x0000000000000000       0x30 drivers/built-in.o
 .text.uclass_get_device_by_seq
                0x0000000000000000       0x58 drivers/built-in.o
 .text.uclass_get_device_by_of_offset
                0x0000000000000000       0x30 drivers/built-in.o
 .text.uclass_first_device
                0x0000000000000000       0x38 drivers/built-in.o
 .text.uclass_first_device_err
                0x0000000000000000       0x28 drivers/built-in.o
 .text.uclass_next_device
                0x0000000000000000       0x40 drivers/built-in.o
 .text.dm_dbg   0x0000000000000000       0x28 drivers/built-in.o
 .text.list_count_items
                0x0000000000000000       0x20 drivers/built-in.o
 .text.device_unbind
                0x0000000000000000      0x154 drivers/built-in.o
 .text.blk_list_part
                0x0000000000000000       0x94 drivers/built-in.o
 .text.blk_print_part_devnum
                0x0000000000000000       0x5c drivers/built-in.o
 .text.blk_list_devices
                0x0000000000000000       0x70 drivers/built-in.o
 .text.blk_print_device_num
                0x0000000000000000       0x5c drivers/built-in.o
 .text.blk_show_device
                0x0000000000000000       0x88 drivers/built-in.o
 .text.blk_read_devnum
                0x0000000000000000       0x7c drivers/built-in.o
 .text.blk_write_devnum
                0x0000000000000000       0x54 drivers/built-in.o
 .text.dfu_usb_get_reset
                0x0000000000000000        0x8 drivers/built-in.o
 .text.dfu_get_alt
                0x0000000000000000       0xa4 drivers/built-in.o
 .text.dfu_write_from_mem_addr
                0x0000000000000000       0xd0 drivers/built-in.o
 .text.board_video_skip
                0x0000000000000000        0x8 drivers/built-in.o
 .text.video_position_cursor
                0x0000000000000000       0x60 drivers/built-in.o
 .text.video_get_pixel_width
                0x0000000000000000       0x14 drivers/built-in.o
 .text.video_get_pixel_height
                0x0000000000000000       0x14 drivers/built-in.o
 .text.video_get_screen_rows
                0x0000000000000000       0x28 drivers/built-in.o
 .text.video_get_screen_columns
                0x0000000000000000       0x18 drivers/built-in.o
 .text.ipu_set_ldb_clock
                0x0000000000000000       0x14 drivers/built-in.o
 .text._input_send_keycodes
                0x0000000000000000      0x414 drivers/built-in.o
 .text.input_tstc
                0x0000000000000000       0x48 drivers/built-in.o
 .text.input_getc
                0x0000000000000000       0x5c drivers/built-in.o
 .text.input_send_keycodes
                0x0000000000000000        0x8 drivers/built-in.o
 .text.input_add_keycode
                0x0000000000000000       0x8c drivers/built-in.o
 .text.input_add_table
                0x0000000000000000       0x44 drivers/built-in.o
 .text.input_set_delays
                0x0000000000000000        0xc drivers/built-in.o
 .text.input_allow_repeats
                0x0000000000000000        0x8 drivers/built-in.o
 .text.input_leds_changed
                0x0000000000000000       0x14 drivers/built-in.o
 .text.input_add_tables
                0x0000000000000000       0x60 drivers/built-in.o
 .text.input_init
                0x0000000000000000       0x24 drivers/built-in.o
 .text.input_stdio_register
                0x0000000000000000       0x64 drivers/built-in.o
 .rodata.__func__.9393
                0x0000000000000000       0x18 drivers/built-in.o
 .rodata.__func__.9389
                0x0000000000000000       0x18 drivers/built-in.o
 .rodata.__func__.9401
                0x0000000000000000       0x14 drivers/built-in.o
 .rodata.__func__.9405
                0x0000000000000000       0x14 drivers/built-in.o
 .rodata.__func__.10476
                0x0000000000000000       0x18 drivers/built-in.o
 .rodata.kbd_to_ansi364
                0x0000000000000000       0x20 drivers/built-in.o
 .rodata.kbd_plain_xlate
                0x0000000000000000       0x64 drivers/built-in.o
 .rodata.kbd_plain_xlate_german
                0x0000000000000000       0x84 drivers/built-in.o
 .rodata.CSWTCH.33
                0x0000000000000000        0xd drivers/built-in.o
 .data          0x0000000000000000        0x0 drivers/built-in.o
 .data.kbd_ctrl_xlate
                0x0000000000000000       0x64 drivers/built-in.o
 .data.kbd_right_alt_xlate_german
                0x0000000000000000       0x58 drivers/built-in.o
 .data.kbd_shift_xlate_german
                0x0000000000000000       0x84 drivers/built-in.o
 .data.kbd_entry
                0x0000000000000000       0x8c drivers/built-in.o
 .data.kbd_shift_xlate
                0x0000000000000000       0x64 drivers/built-in.o
 .bss           0x0000000000000000        0x0 drivers/built-in.o
 .text          0x0000000000000000        0x0 drivers/gpio/built-in.o
 .data          0x0000000000000000        0x0 drivers/gpio/built-in.o
 .bss           0x0000000000000000        0x0 drivers/gpio/built-in.o
 .text          0x0000000000000000        0x0 drivers/i2c/built-in.o
 .text.i2c_reloc_fixup
                0x0000000000000000        0x4 drivers/i2c/built-in.o
 .text.i2c_init_board
                0x0000000000000000        0x4 drivers/i2c/built-in.o
 .text.i2c_reg_read
                0x0000000000000000       0x20 drivers/i2c/built-in.o
 .text.i2c_reg_write
                0x0000000000000000       0x20 drivers/i2c/built-in.o
 .text.i2c_get_base
                0x0000000000000000       0x18 drivers/i2c/built-in.o
 .text.__enable_i2c_clk
                0x0000000000000000        0x8 drivers/i2c/built-in.o
 .data          0x0000000000000000        0x0 drivers/i2c/built-in.o
 .bss           0x0000000000000000        0x0 drivers/i2c/built-in.o
 .text          0x0000000000000000        0x0 drivers/mmc/built-in.o
 .text.fdt_fixup_esdhc
                0x0000000000000000       0x58 drivers/mmc/built-in.o
 .text.board_mmc_getcd
                0x0000000000000000        0x8 drivers/mmc/built-in.o
 .text.mmc_register
                0x0000000000000000       0x20 drivers/mmc/built-in.o
 .text.mmc_destroy
                0x0000000000000000        0x4 drivers/mmc/built-in.o
 .text.cpu_mmc_init
                0x0000000000000000        0x8 drivers/mmc/built-in.o
 .text.board_mmc_init
                0x0000000000000000        0x8 drivers/mmc/built-in.o
 .text.mmc_set_preinit
                0x0000000000000000        0x8 drivers/mmc/built-in.o
 .rodata.__func__.9477
                0x0000000000000000        0xd drivers/mmc/built-in.o
 .data          0x0000000000000000        0x0 drivers/mmc/built-in.o
 .bss           0x0000000000000000        0x0 drivers/mmc/built-in.o
 .text          0x0000000000000000        0x0 drivers/mtd/built-in.o
 .text.idr_remove
                0x0000000000000000       0x14 drivers/mtd/built-in.o
 .text.idr_find
                0x0000000000000000       0x14 drivers/mtd/built-in.o
 .text.idr_get_next
                0x0000000000000000       0x48 drivers/mtd/built-in.o
 .text.idr_alloc
                0x0000000000000000       0x3c drivers/mtd/built-in.o
 .text.__mtd_next_device
                0x0000000000000000       0x20 drivers/mtd/built-in.o
 .text.del_mtd_device
                0x0000000000000000       0x74 drivers/mtd/built-in.o
 .text.__get_mtd_device
                0x0000000000000000       0x38 drivers/mtd/built-in.o
 .text.get_mtd_device
                0x0000000000000000       0x8c drivers/mtd/built-in.o
 .text.get_mtd_device_nm
                0x0000000000000000       0x58 drivers/mtd/built-in.o
 .text.__put_mtd_device
                0x0000000000000000       0x4c drivers/mtd/built-in.o
 .text.put_mtd_device
                0x0000000000000000        0x4 drivers/mtd/built-in.o
 .text.mtd_erase
                0x0000000000000000       0x94 drivers/mtd/built-in.o
 .text.mtd_get_unmapped_area
                0x0000000000000000       0x60 drivers/mtd/built-in.o
 .text.mtd_read
                0x0000000000000000       0xb0 drivers/mtd/built-in.o
 .text.mtd_write
                0x0000000000000000       0xa0 drivers/mtd/built-in.o
 .text.mtd_panic_write
                0x0000000000000000       0xb0 drivers/mtd/built-in.o
 .text.mtd_read_oob
                0x0000000000000000       0x64 drivers/mtd/built-in.o
 .text.mtd_get_fact_prot_info
                0x0000000000000000       0x30 drivers/mtd/built-in.o
 .text.mtd_read_fact_prot_reg
                0x0000000000000000       0x4c drivers/mtd/built-in.o
 .text.mtd_get_user_prot_info
                0x0000000000000000       0x30 drivers/mtd/built-in.o
 .text.mtd_read_user_prot_reg
                0x0000000000000000       0x4c drivers/mtd/built-in.o
 .text.mtd_write_user_prot_reg
                0x0000000000000000       0x6c drivers/mtd/built-in.o
 .text.mtd_lock_user_prot_reg
                0x0000000000000000       0x38 drivers/mtd/built-in.o
 .text.mtd_lock
                0x0000000000000000       0x78 drivers/mtd/built-in.o
 .text.mtd_unlock
                0x0000000000000000       0x78 drivers/mtd/built-in.o
 .text.add_mtd_device
                0x0000000000000000      0x1dc drivers/mtd/built-in.o
 .text.mtd_is_locked
                0x0000000000000000       0x78 drivers/mtd/built-in.o
 .text.mtd_block_isreserved
                0x0000000000000000       0x4c drivers/mtd/built-in.o
 .text.mtd_block_isbad
                0x0000000000000000       0x4c drivers/mtd/built-in.o
 .text.mtd_block_markbad
                0x0000000000000000       0x60 drivers/mtd/built-in.o
 .data          0x0000000000000000        0x0 drivers/mtd/built-in.o
 .bss           0x0000000000000000        0x0 drivers/mtd/built-in.o
 .bss.mtd_table
                0x0000000000000000       0x80 drivers/mtd/built-in.o
 .bss.mtd_idr   0x0000000000000000      0x200 drivers/mtd/built-in.o
 .text          0x0000000000000000        0x0 drivers/mtd/spi/built-in.o
 .data          0x0000000000000000        0x0 drivers/mtd/spi/built-in.o
 .bss           0x0000000000000000        0x0 drivers/mtd/spi/built-in.o
 .text          0x0000000000000000        0x0 drivers/net/built-in.o
 .data          0x0000000000000000        0x0 drivers/net/built-in.o
 .bss           0x0000000000000000        0x0 drivers/net/built-in.o
 .text          0x0000000000000000        0x0 drivers/net/phy/built-in.o
 .text.phy_set_supported
                0x0000000000000000       0x5c drivers/net/phy/built-in.o
 .text.miiphy_reset
                0x0000000000000000       0x24 drivers/net/phy/built-in.o
 .text.phy_connect
                0x0000000000000000       0x50 drivers/net/phy/built-in.o
 .text.phy_shutdown
                0x0000000000000000       0x20 drivers/net/phy/built-in.o
 .text.phy_get_interface_by_name
                0x0000000000000000       0x44 drivers/net/phy/built-in.o
 .rodata.phy_interface_strings
                0x0000000000000000       0x38 drivers/net/phy/built-in.o
 .data          0x0000000000000000        0x0 drivers/net/phy/built-in.o
 .bss           0x0000000000000000        0x0 drivers/net/phy/built-in.o
 .text          0x0000000000000000        0x0 drivers/pci/built-in.o
 .text.find_hose_by_cfg_addr
                0x0000000000000000       0x2c drivers/pci/built-in.o
 .text.pci_last_busno
                0x0000000000000000       0x30 drivers/pci/built-in.o
 .text.pci_find_devices
                0x0000000000000000       0x68 drivers/pci/built-in.o
 .text.pci_hose_config_device
                0x0000000000000000      0x1d0 drivers/pci/built-in.o
 .text.pci_find_config
                0x0000000000000000       0xa8 drivers/pci/built-in.o
 .text.pci_cfgfunc_config_device
                0x0000000000000000       0x24 drivers/pci/built-in.o
 .text.pci_cfgfunc_do_nothing
                0x0000000000000000        0x4 drivers/pci/built-in.o
 .text.pci_hose_find_cap_start
                0x0000000000000000       0x48 drivers/pci/built-in.o
 .text.pci_find_cap
                0x0000000000000000       0x80 drivers/pci/built-in.o
 .text.pci_hose_find_capability
                0x0000000000000000       0x58 drivers/pci/built-in.o
 .text.pci_find_next_ext_capability
                0x0000000000000000       0xb0 drivers/pci/built-in.o
 .text.pci_hose_find_ext_capability
                0x0000000000000000        0xc drivers/pci/built-in.o
 .text.pci_write_bar32
                0x0000000000000000        0xc drivers/pci/built-in.o
 .text.pci_read_bar32
                0x0000000000000000       0x2c drivers/pci/built-in.o
 .text.__pci_hose_bus_to_phys
                0x0000000000000000       0x74 drivers/pci/built-in.o
 .text.pci_hose_bus_to_phys
                0x0000000000000000       0x80 drivers/pci/built-in.o
 .text.pci_map_bar
                0x0000000000000000       0x38 drivers/pci/built-in.o
 .text.__pci_hose_phys_to_bus
                0x0000000000000000       0x70 drivers/pci/built-in.o
 .text.pci_hose_phys_to_bus
                0x0000000000000000       0x80 drivers/pci/built-in.o
 .text.pci_find_device
                0x0000000000000000       0x40 drivers/pci/built-in.o
 .text.pci_hose_find_devices
                0x0000000000000000       0xf4 drivers/pci/built-in.o
 .text.pci_find_class
                0x0000000000000000       0xcc drivers/pci/built-in.o
 .data          0x0000000000000000        0x0 drivers/pci/built-in.o
 .bss           0x0000000000000000        0x0 drivers/pci/built-in.o
 .text          0x0000000000000000        0x0 drivers/power/built-in.o
 .text.pmic_set_output
                0x0000000000000000       0x60 drivers/power/built-in.o
 .data          0x0000000000000000        0x0 drivers/power/built-in.o
 .bss           0x0000000000000000        0x0 drivers/power/built-in.o
 .text          0x0000000000000000        0x0 drivers/power/pmic/built-in.o
 .data          0x0000000000000000        0x0 drivers/power/pmic/built-in.o
 .bss           0x0000000000000000        0x0 drivers/power/pmic/built-in.o
 .text          0x0000000000000000        0x0 drivers/serial/built-in.o
 .text.serial_reinit_all
                0x0000000000000000       0x2c drivers/serial/built-in.o
 .data          0x0000000000000000        0x0 drivers/serial/built-in.o
 .bss           0x0000000000000000        0x0 drivers/serial/built-in.o
 .text          0x0000000000000000        0x0 drivers/spi/built-in.o
 .text.spi_set_wordlen
                0x0000000000000000       0x30 drivers/spi/built-in.o
 .text.board_spi_cs_gpio
                0x0000000000000000        0x8 drivers/spi/built-in.o
 .text.get_cspi_div
                0x0000000000000000       0x24 drivers/spi/built-in.o
 .text.spi_init
                0x0000000000000000        0x4 drivers/spi/built-in.o
 .data          0x0000000000000000        0x0 drivers/spi/built-in.o
 .bss           0x0000000000000000        0x0 drivers/spi/built-in.o
 .text          0x0000000000000000        0x0 drivers/usb/eth/built-in.o
 .text.is_eth_dev_on_usb_host
                0x0000000000000000       0x60 drivers/usb/eth/built-in.o
 .data          0x0000000000000000        0x0 drivers/usb/eth/built-in.o
 .bss           0x0000000000000000        0x0 drivers/usb/eth/built-in.o
 .text          0x0000000000000000        0x0 drivers/usb/gadget/built-in.o
 .text.usb_gadget_config_buf
                0x0000000000000000       0x8c drivers/usb/gadget/built-in.o
 .text.usb_function_deactivate
                0x0000000000000000       0x54 drivers/usb/gadget/built-in.o
 .text.usb_function_activate
                0x0000000000000000       0x60 drivers/usb/gadget/built-in.o
 .text.usb_string_ids_tab
                0x0000000000000000       0x44 drivers/usb/gadget/built-in.o
 .text.usb_string_ids_n
                0x0000000000000000       0x2c drivers/usb/gadget/built-in.o
 .text.board_usb_init
                0x0000000000000000        0x8 drivers/usb/gadget/built-in.o
 .text.board_usb_cleanup
                0x0000000000000000        0x8 drivers/usb/gadget/built-in.o
 .text.set_bit  0x0000000000000000       0x1c drivers/usb/gadget/built-in.o
 .text.clear_bit
                0x0000000000000000       0x1c drivers/usb/gadget/built-in.o
 .text.fastboot_fail
                0x0000000000000000       0x30 drivers/usb/gadget/built-in.o
 .text.fastboot_okay
                0x0000000000000000       0x30 drivers/usb/gadget/built-in.o
 .rodata        0x0000000000000000        0xc drivers/usb/gadget/built-in.o
 .data          0x0000000000000000        0x0 drivers/usb/gadget/built-in.o
 .bss           0x0000000000000000        0x0 drivers/usb/gadget/built-in.o
 .text          0x0000000000000000        0x0 drivers/usb/host/built-in.o
 .text.ehci_set_controller_priv
                0x0000000000000000       0xb8 drivers/usb/host/built-in.o
 .text.ehci_get_controller_priv
                0x0000000000000000       0x18 drivers/usb/host/built-in.o
 .text.create_int_queue
                0x0000000000000000        0x4 drivers/usb/host/built-in.o
 .text.poll_int_queue
                0x0000000000000000        0x4 drivers/usb/host/built-in.o
 .text.destroy_int_queue
                0x0000000000000000        0x4 drivers/usb/host/built-in.o
 .text.board_ehci_hcd_init
                0x0000000000000000        0x8 drivers/usb/host/built-in.o
 .text.board_ehci_power
                0x0000000000000000        0x8 drivers/usb/host/built-in.o
 .rodata.default_ehci_ops
                0x0000000000000000       0x14 drivers/usb/host/built-in.o
 .data          0x0000000000000000        0x0 drivers/usb/host/built-in.o
 .bss           0x0000000000000000        0x0 drivers/usb/host/built-in.o
 .text          0x0000000000000000        0x0 fs/built-in.o
 .text.fs_uuid  0x0000000000000000       0x28 fs/built-in.o
 .text.do_fs_uuid
                0x0000000000000000       0x90 fs/built-in.o
 .text.print_revoke_blks
                0x0000000000000000       0x50 fs/built-in.o
 .text.fat_register_device
                0x0000000000000000       0x88 fs/built-in.o
 .text.file_fat_read
                0x0000000000000000       0x38 fs/built-in.o
 .text.file_getfsname
                0x0000000000000000       0x18 fs/built-in.o
 .text.file_cd  0x0000000000000000      0x1f0 fs/built-in.o
 .text.file_detectfs
                0x0000000000000000       0x40 fs/built-in.o
 .text.file_ls  0x0000000000000000       0x94 fs/built-in.o
 .text.file_read
                0x0000000000000000       0xa4 fs/built-in.o
 .rodata.filesystems
                0x0000000000000000       0x18 fs/built-in.o
 .data          0x0000000000000000        0x0 fs/built-in.o
 .data.file_cwd
                0x0000000000000000      0x200 fs/built-in.o
 .data.current_filesystem
                0x0000000000000000        0x4 fs/built-in.o
 .bss           0x0000000000000000        0x0 fs/built-in.o
 .bss.ext4fs_symlinknest
                0x0000000000000000        0x4 fs/built-in.o
 .text          0x0000000000000000        0x0 lib/built-in.o
 .text.invalidate_icache_all
                0x0000000000000000        0x4 lib/built-in.o
 .text.inflateInit_
                0x0000000000000000       0x14 lib/built-in.o
 .text.crc7     0x0000000000000000       0x24 lib/built-in.o
 .text.crc8     0x0000000000000000       0x4c lib/built-in.o
 .text.lmb_dump_all
                0x0000000000000000        0x4 lib/built-in.o
 .text.lmb_is_reserved
                0x0000000000000000       0x50 lib/built-in.o
 .text.arch_lmb_reserve
                0x0000000000000000        0x4 lib/built-in.o
 .text.ldiv     0x0000000000000000       0x50 lib/built-in.o
 .text.rc4_encode
                0x0000000000000000       0xe8 lib/built-in.o
 .text.strmhz   0x0000000000000000       0x70 lib/built-in.o
 .text.fdt_first_subnode
                0x0000000000000000       0x38 lib/built-in.o
 .text.fdt_next_subnode
                0x0000000000000000       0x50 lib/built-in.o
 .text.fdt_get_phandle
                0x0000000000000000       0x70 lib/built-in.o
 .text.fdt_get_alias
                0x0000000000000000       0x28 lib/built-in.o
 .text.fdt_get_path
                0x0000000000000000      0x13c lib/built-in.o
 .text.fdt_parent_offset
                0x0000000000000000       0x30 lib/built-in.o
 .text.fdt_node_offset_by_prop_value
                0x0000000000000000       0x9c lib/built-in.o
 .text.fdt_node_offset_by_phandle
                0x0000000000000000       0x78 lib/built-in.o
 .text.fdt_stringlist_contains
                0x0000000000000000       0x7c lib/built-in.o
 .text.fdt_count_strings
                0x0000000000000000       0x58 lib/built-in.o
 .text.fdt_find_string
                0x0000000000000000       0x8c lib/built-in.o
 .text.fdt_get_string_index
                0x0000000000000000       0x64 lib/built-in.o
 .text.fdt_get_string
                0x0000000000000000       0x18 lib/built-in.o
 .text.fdt_node_check_compatible
                0x0000000000000000       0x40 lib/built-in.o
 .text.fdt_node_offset_by_compatible
                0x0000000000000000       0x74 lib/built-in.o
 .text.fdt_set_name
                0x0000000000000000       0x88 lib/built-in.o
 .text.fdt_appendprop
                0x0000000000000000       0xd0 lib/built-in.o
 .text.fdt_pack
                0x0000000000000000       0x5c lib/built-in.o
 .text.fdt_remove_unused_strings
                0x0000000000000000       0xb0 lib/built-in.o
 .text._fdt_sw_check_header
                0x0000000000000000       0x20 lib/built-in.o
 .text._fdt_grab_space
                0x0000000000000000       0x58 lib/built-in.o
 .text.fdt_create
                0x0000000000000000       0x64 lib/built-in.o
 .text.fdt_resize
                0x0000000000000000       0xb4 lib/built-in.o
 .text.fdt_add_reservemap_entry
                0x0000000000000000       0x90 lib/built-in.o
 .text.fdt_finish_reservemap
                0x0000000000000000       0x1c lib/built-in.o
 .text.fdt_begin_node
                0x0000000000000000       0x68 lib/built-in.o
 .text.fdt_end_node
                0x0000000000000000       0x40 lib/built-in.o
 .text.fdt_property_placeholder
                0x0000000000000000      0x108 lib/built-in.o
 .text.fdt_property
                0x0000000000000000       0x3c lib/built-in.o
 .text.fdt_finish
                0x0000000000000000      0x108 lib/built-in.o
 .text.fdt_setprop_inplace
                0x0000000000000000       0x44 lib/built-in.o
 .text.fdt_nop_property
                0x0000000000000000       0x3c lib/built-in.o
 .text.fdt_nop_node
                0x0000000000000000       0x50 lib/built-in.o
 .text.fdt_find_regions
                0x0000000000000000      0x394 lib/built-in.o
 .text.fdt_create_empty_tree
                0x0000000000000000       0x74 lib/built-in.o
 .text.fdt_add_region
                0x0000000000000000       0x8c lib/built-in.o
 .text.fdt_add_alias_regions
                0x0000000000000000      0x1a0 lib/built-in.o
 .text.fdt_next_region
                0x0000000000000000      0x528 lib/built-in.o
 .text.fdt_first_region
                0x0000000000000000       0x48 lib/built-in.o
 .text.print_freq
                0x0000000000000000      0x1b8 lib/built-in.o
 .text.copy_from_user
                0x0000000000000000       0x10 lib/built-in.o
 .text.kmalloc  0x0000000000000000       0x38 lib/built-in.o
 .text.get_mem  0x0000000000000000       0x1c lib/built-in.o
 .text.kmem_cache_alloc
                0x0000000000000000       0x10 lib/built-in.o
 .text.membuff_purge
                0x0000000000000000       0x10 lib/built-in.o
 .text.membuff_putraw
                0x0000000000000000       0xcc lib/built-in.o
 .text.membuff_putbyte
                0x0000000000000000       0x30 lib/built-in.o
 .text.membuff_getraw
                0x0000000000000000       0x90 lib/built-in.o
 .text.membuff_getbyte
                0x0000000000000000       0x34 lib/built-in.o
 .text.membuff_peekbyte
                0x0000000000000000       0x30 lib/built-in.o
 .text.membuff_get
                0x0000000000000000       0x84 lib/built-in.o
 .text.membuff_put
                0x0000000000000000       0x60 lib/built-in.o
 .text.membuff_isempty
                0x0000000000000000       0x18 lib/built-in.o
 .text.membuff_avail
                0x0000000000000000       0x54 lib/built-in.o
 .text.membuff_size
                0x0000000000000000        0xc lib/built-in.o
 .text.membuff_makecontig
                0x0000000000000000       0x80 lib/built-in.o
 .text.membuff_free
                0x0000000000000000       0x2c lib/built-in.o
 .text.membuff_readline
                0x0000000000000000       0xb0 lib/built-in.o
 .text.membuff_extend_by
                0x0000000000000000       0xb8 lib/built-in.o
 .text.membuff_init
                0x0000000000000000       0x18 lib/built-in.o
 .text.membuff_new
                0x0000000000000000       0x38 lib/built-in.o
 .text.membuff_uninit
                0x0000000000000000       0x18 lib/built-in.o
 .text.membuff_dispose
                0x0000000000000000       0x24 lib/built-in.o
 .text.strncasecmp
                0x0000000000000000       0x80 lib/built-in.o
 .text.strcasecmp
                0x0000000000000000        0x8 lib/built-in.o
 .text.strswab  0x0000000000000000       0x48 lib/built-in.o
 .text.bcopy    0x0000000000000000       0x20 lib/built-in.o
 .text.memscan  0x0000000000000000       0x2c lib/built-in.o
 .text.memchr_inv
                0x0000000000000000      0x13c lib/built-in.o
 .text.timer_init
                0x0000000000000000        0x8 lib/built-in.o
 .text.vsnprintf
                0x0000000000000000        0x4 lib/built-in.o
 .text.scnprintf
                0x0000000000000000       0x28 lib/built-in.o
 .text.__assert_fail
                0x0000000000000000       0x14 lib/built-in.o
 .text.print_grouped_ull
                0x0000000000000000       0x88 lib/built-in.o
 .text.str2long
                0x0000000000000000       0x44 lib/built-in.o
 .text.panic_str
                0x0000000000000000        0xc lib/built-in.o
 .rodata.z_errmsg
                0x0000000000000000       0x28 lib/built-in.o
 .rodata.crc7_syndrome_table
                0x0000000000000000      0x100 lib/built-in.o
 .rodata.names.7419
                0x0000000000000000        0x3 lib/built-in.o
 .data          0x0000000000000000        0x0 lib/built-in.o
 .data.cur      0x0000000000000000        0x4 lib/built-in.o
 .data.current  0x0000000000000000        0x4 lib/built-in.o
 .bss           0x0000000000000000        0x0 lib/built-in.o
 .text          0x0000000000000000        0x0 net/built-in.o
 .text.add_ip_checksums
                0x0000000000000000       0x3c net/built-in.o
 .text.eth_is_active
                0x0000000000000000       0x1c net/built-in.o
 .text.net_get_udp_handler
                0x0000000000000000       0x10 net/built-in.o
 .text.net_set_arp_handler
                0x0000000000000000       0x20 net/built-in.o
 .text.random_port
                0x0000000000000000       0x18 net/built-in.o
 .text.vlan_to_string
                0x0000000000000000       0x44 net/built-in.o
 .text.getenv_vlan
                0x0000000000000000       0x10 net/built-in.o
 .data          0x0000000000000000        0x0 net/built-in.o
 .data.tftp_timeout_ms
                0x0000000000000000        0x4 net/built-in.o
 .bss           0x0000000000000000        0x0 net/built-in.o
 .bss.net_busy_flag
                0x0000000000000000        0x4 net/built-in.o
 .text          0x0000000000000000        0x0 test/dm/built-in.o
 .data          0x0000000000000000        0x0 test/dm/built-in.o
 .bss           0x0000000000000000        0x0 test/dm/built-in.o
 .text          0x0000000000000000        0x0 arch/arm/lib/eabi_compat.o
 .data          0x0000000000000000        0x0 arch/arm/lib/eabi_compat.o
 .bss           0x0000000000000000        0x0 arch/arm/lib/eabi_compat.o
 .text.__aeabi_unwind_cpp_pr0
                0x0000000000000000        0x4 arch/arm/lib/eabi_compat.o
 .text.__aeabi_unwind_cpp_pr1
                0x0000000000000000        0x4 arch/arm/lib/eabi_compat.o
 .text.__aeabi_memcpy
                0x0000000000000000        0x4 arch/arm/lib/eabi_compat.o
 .text.__aeabi_memset
                0x0000000000000000       0x10 arch/arm/lib/eabi_compat.o
 .data          0x0000000000000000        0x0 /opt/poky/1.5.1/sysroots/cortexa9hf-vfp-neon-poky-linux-gnueabi/usr/lib/arm-poky-linux-gnueabi/4.8.1/libgcc.a(_udivsi3.o)
 .bss           0x0000000000000000        0x0 /opt/poky/1.5.1/sysroots/cortexa9hf-vfp-neon-poky-linux-gnueabi/usr/lib/arm-poky-linux-gnueabi/4.8.1/libgcc.a(_udivsi3.o)
 .data          0x0000000000000000        0x0 /opt/poky/1.5.1/sysroots/cortexa9hf-vfp-neon-poky-linux-gnueabi/usr/lib/arm-poky-linux-gnueabi/4.8.1/libgcc.a(_divsi3.o)
 .bss           0x0000000000000000        0x0 /opt/poky/1.5.1/sysroots/cortexa9hf-vfp-neon-poky-linux-gnueabi/usr/lib/arm-poky-linux-gnueabi/4.8.1/libgcc.a(_divsi3.o)
 .data          0x0000000000000000        0x0 /opt/poky/1.5.1/sysroots/cortexa9hf-vfp-neon-poky-linux-gnueabi/usr/lib/arm-poky-linux-gnueabi/4.8.1/libgcc.a(_lshrdi3.o)
 .bss           0x0000000000000000        0x0 /opt/poky/1.5.1/sysroots/cortexa9hf-vfp-neon-poky-linux-gnueabi/usr/lib/arm-poky-linux-gnueabi/4.8.1/libgcc.a(_lshrdi3.o)
 .data          0x0000000000000000        0x0 /opt/poky/1.5.1/sysroots/cortexa9hf-vfp-neon-poky-linux-gnueabi/usr/lib/arm-poky-linux-gnueabi/4.8.1/libgcc.a(_ashldi3.o)
 .bss           0x0000000000000000        0x0 /opt/poky/1.5.1/sysroots/cortexa9hf-vfp-neon-poky-linux-gnueabi/usr/lib/arm-poky-linux-gnueabi/4.8.1/libgcc.a(_ashldi3.o)
 .data          0x0000000000000000        0x0 /opt/poky/1.5.1/sysroots/cortexa9hf-vfp-neon-poky-linux-gnueabi/usr/lib/arm-poky-linux-gnueabi/4.8.1/libgcc.a(_dvmd_lnx.o)
 .bss           0x0000000000000000        0x0 /opt/poky/1.5.1/sysroots/cortexa9hf-vfp-neon-poky-linux-gnueabi/usr/lib/arm-poky-linux-gnueabi/4.8.1/libgcc.a(_dvmd_lnx.o)

Memory Configuration

Name             Origin             Length             Attributes
*default*        0x0000000000000000 0xffffffffffffffff

Linker script and memory map

Address of section .text set to 0x17800000
                0x0000000000000000                . = 0x0
                0x0000000000000000                . = ALIGN (0x4)

.text           0x0000000017800000    0x4d468
 *(.__image_copy_start)
 .__image_copy_start
                0x0000000017800000        0x0 arch/arm/lib/built-in.o
                0x0000000017800000                __image_copy_start
 *(.vectors)
 .vectors       0x0000000017800000      0x300 arch/arm/lib/built-in.o
                0x0000000017800000                _start
                0x0000000017800020                _undefined_instruction
                0x0000000017800024                _software_interrupt
                0x0000000017800028                _prefetch_abort
                0x000000001780002c                _data_abort
                0x0000000017800030                _not_used
                0x0000000017800034                _irq
                0x0000000017800038                _fiq
                0x0000000017800040                IRQ_STACK_START_IN
 arch/arm/cpu/armv7/start.o(.text*)
 .text          0x0000000017800300       0xe0 arch/arm/cpu/armv7/start.o
                0x0000000017800300                reset
                0x0000000017800304                save_boot_params_ret
                0x0000000017800340                c_runtime_cpu_setup
                0x0000000017800350                save_boot_params
                0x0000000017800354                cpu_init_cp15
                0x00000000178003d8                cpu_init_crit
 *(.text*)
 .text          0x00000000178003e0      0x16c arch/arm/cpu/armv7/built-in.o
                0x00000000178003e0                __v7_flush_dcache_all
                0x0000000017800474                v7_flush_dcache_all
                0x0000000017800484                __v7_invalidate_dcache_all
                0x0000000017800518                v7_invalidate_dcache_all
                0x0000000017800528                lowlevel_init
 .text.v7_dcache_inval_range
                0x000000001780054c       0x80 arch/arm/cpu/armv7/built-in.o
 .text.invalidate_icache_all
                0x00000000178005cc       0x18 arch/arm/cpu/armv7/built-in.o
                0x00000000178005cc                invalidate_icache_all
 .text.flush_dcache_all
                0x00000000178005e4       0x10 arch/arm/cpu/armv7/built-in.o
                0x00000000178005e4                flush_dcache_all
 .text.invalidate_dcache_all
                0x00000000178005f4       0x10 arch/arm/cpu/armv7/built-in.o
                0x00000000178005f4                invalidate_dcache_all
 .text.arm_init_before_mmu
                0x0000000017800604       0x28 arch/arm/cpu/armv7/built-in.o
                0x0000000017800604                arm_init_before_mmu
 .text.flush_dcache_range
                0x000000001780062c       0x38 arch/arm/cpu/armv7/built-in.o
                0x000000001780062c                flush_dcache_range
 .text.mmu_page_table_flush
                0x0000000017800664       0x24 arch/arm/cpu/armv7/built-in.o
                0x0000000017800664                mmu_page_table_flush
 .text.invalidate_dcache_range
                0x0000000017800688       0x38 arch/arm/cpu/armv7/built-in.o
                0x0000000017800688                invalidate_dcache_range
 .text.cpu_cache_initialization
                0x00000000178006c0        0x4 arch/arm/cpu/armv7/built-in.o
                0x00000000178006c0                cpu_cache_initialization
 .text.cleanup_before_linux_select
                0x00000000178006c4       0x4c arch/arm/cpu/armv7/built-in.o
                0x00000000178006c4                cleanup_before_linux_select
 .text.cleanup_before_linux
                0x0000000017800710        0x8 arch/arm/cpu/armv7/built-in.o
                0x0000000017800710                cleanup_before_linux
 .text.get_nr_cpus
                0x0000000017800718       0x10 arch/arm/cpu/armv7/built-in.o
                0x0000000017800718                get_nr_cpus
 .text.get_cpu_rev
                0x0000000017800728       0x9c arch/arm/cpu/armv7/built-in.o
                0x0000000017800728                get_cpu_rev
 .text.get_cpu_speed_grade_hz
                0x00000000178007c4       0xb4 arch/arm/cpu/armv7/built-in.o
                0x00000000178007c4                get_cpu_speed_grade_hz
 .text.get_cpu_temp_grade
                0x0000000017800878       0x68 arch/arm/cpu/armv7/built-in.o
                0x0000000017800878                get_cpu_temp_grade
 .text.get_board_rev
                0x00000000178008e0       0x30 arch/arm/cpu/armv7/built-in.o
                0x00000000178008e0                get_board_rev
 .text.arch_cpu_init
                0x0000000017800910       0xd0 arch/arm/cpu/armv7/built-in.o
                0x0000000017800910                arch_cpu_init
 .text.mmc_get_env_dev
                0x00000000178009e0       0x28 arch/arm/cpu/armv7/built-in.o
                0x00000000178009e0                mmc_get_env_dev
 .text.board_postclk_init
                0x0000000017800a08       0x54 arch/arm/cpu/armv7/built-in.o
                0x0000000017800a08                board_postclk_init
 .text.imx_get_mac_from_fuse
                0x0000000017800a5c       0xb0 arch/arm/cpu/armv7/built-in.o
                0x0000000017800a5c                imx_get_mac_from_fuse
 .text.reset_misc
                0x0000000017800b0c        0x4 arch/arm/cpu/armv7/built-in.o
                0x0000000017800b0c                reset_misc
 .text.s_init   0x0000000017800b10       0x88 arch/arm/cpu/armv7/built-in.o
                0x0000000017800b10                s_init
 .text.imx_enable_hdmi_phy
                0x0000000017800b98       0x5c arch/arm/cpu/armv7/built-in.o
                0x0000000017800b98                imx_enable_hdmi_phy
 .text.imx_setup_hdmi
                0x0000000017800bf4       0x8c arch/arm/cpu/armv7/built-in.o
                0x0000000017800bf4                imx_setup_hdmi
 .text.get_ipg_clk
                0x0000000017800c80       0x28 arch/arm/cpu/armv7/built-in.o
 .text.get_uart_clk
                0x0000000017800ca8       0xb4 arch/arm/cpu/armv7/built-in.o
 .text.mxc_get_pll_pfd
                0x0000000017800d5c       0xc8 arch/arm/cpu/armv7/built-in.o
 .text.get_usdhc_clk
                0x0000000017800e24       0x90 arch/arm/cpu/armv7/built-in.o
 .text.enable_ocotp_clk
                0x0000000017800eb4       0x24 arch/arm/cpu/armv7/built-in.o
                0x0000000017800eb4                enable_ocotp_clk
 .text.enable_usboh3_clk
                0x0000000017800ed8       0x24 arch/arm/cpu/armv7/built-in.o
                0x0000000017800ed8                enable_usboh3_clk
 .text.enable_i2c_clk
                0x0000000017800efc       0xa8 arch/arm/cpu/armv7/built-in.o
                0x0000000017800efc                enable_i2c_clk
 .text.get_periph_clk
                0x0000000017800fa4       0xe0 arch/arm/cpu/armv7/built-in.o
                0x0000000017800fa4                get_periph_clk
 .text.get_axi_clk
                0x0000000017801084       0x4c arch/arm/cpu/armv7/built-in.o
 .text.imx_get_uartclk
                0x00000000178010d0        0x4 arch/arm/cpu/armv7/built-in.o
                0x00000000178010d0                imx_get_uartclk
 .text.enable_pcie_clock
                0x00000000178010d4       0xbc arch/arm/cpu/armv7/built-in.o
                0x00000000178010d4                enable_pcie_clock
 .text.enable_thermal_clk
                0x0000000017801190       0x4c arch/arm/cpu/armv7/built-in.o
                0x0000000017801190                enable_thermal_clk
 .text.mxc_get_clock
                0x00000000178011dc      0x468 arch/arm/cpu/armv7/built-in.o
                0x00000000178011dc                mxc_get_clock
 .text.imx_get_fecclk
                0x0000000017801644        0x8 arch/arm/cpu/armv7/built-in.o
                0x0000000017801644                imx_get_fecclk
 .text.do_mx6_showclocks
                0x000000001780164c      0x2a0 arch/arm/cpu/armv7/built-in.o
                0x000000001780164c                do_mx6_showclocks
 .text.enable_ipu_clock
                0x00000000178018ec       0x5c arch/arm/cpu/armv7/built-in.o
                0x00000000178018ec                enable_ipu_clock
 .text.cpu_reset
                0x0000000017801948       0x28 arch/arm/cpu/armv7/built-in.o
                0x0000000017801948                cpu_reset
 .text.cpu_status
                0x0000000017801970       0x40 arch/arm/cpu/armv7/built-in.o
                0x0000000017801970                cpu_status
 .text.cpu_release
                0x00000000178019b0       0x80 arch/arm/cpu/armv7/built-in.o
                0x00000000178019b0                cpu_release
 .text.is_core_valid
                0x0000000017801a30       0x1c arch/arm/cpu/armv7/built-in.o
                0x0000000017801a30                is_core_valid
 .text.cpu_disable
                0x0000000017801a4c       0x28 arch/arm/cpu/armv7/built-in.o
                0x0000000017801a4c                cpu_disable
 .text.imx_iomux_v3_setup_pad
                0x0000000017801a74       0xc0 arch/arm/imx-common/built-in.o
                0x0000000017801a74                imx_iomux_v3_setup_pad
 .text.imx_iomux_v3_setup_multiple_pads
                0x0000000017801b34       0x30 arch/arm/imx-common/built-in.o
                0x0000000017801b34                imx_iomux_v3_setup_multiple_pads
 .text.imx_iomux_set_gpr_register
                0x0000000017801b64       0x3c arch/arm/imx-common/built-in.o
                0x0000000017801b64                imx_iomux_set_gpr_register
 .text.timer_init
                0x0000000017801ba0      0x128 arch/arm/imx-common/built-in.o
                0x0000000017801ba0                timer_init
 .text.timer_read_counter
                0x0000000017801cc8       0x10 arch/arm/imx-common/built-in.o
                0x0000000017801cc8                timer_read_counter
 .text.get_tbclk
                0x0000000017801cd8       0x90 arch/arm/imx-common/built-in.o
                0x0000000017801cd8                get_tbclk
 .text.imx_ddr_size
                0x0000000017801d68       0x68 arch/arm/imx-common/built-in.o
                0x0000000017801d68                imx_ddr_size
 .text.get_imx_type
                0x0000000017801dd0       0x20 arch/arm/imx-common/built-in.o
                0x0000000017801dd0                get_imx_type
 .text.print_cpuinfo
                0x0000000017801df0      0x258 arch/arm/imx-common/built-in.o
                0x0000000017801df0                print_cpuinfo
 .text.cpu_eth_init
                0x0000000017802048        0x4 arch/arm/imx-common/built-in.o
                0x0000000017802048                cpu_eth_init
 .text.cpu_mmc_init
                0x000000001780204c        0x4 arch/arm/imx-common/built-in.o
                0x000000001780204c                cpu_mmc_init
 .text.get_ahb_clk
                0x0000000017802050       0x24 arch/arm/imx-common/built-in.o
                0x0000000017802050                get_ahb_clk
 .text.arch_preboot_os
                0x0000000017802074        0x4 arch/arm/imx-common/built-in.o
                0x0000000017802074                arch_preboot_os
 .text.get_clocks
                0x0000000017802078       0x1c arch/arm/imx-common/built-in.o
                0x0000000017802078                get_clocks
 .text.force_idle_bus
                0x0000000017802094      0x124 arch/arm/imx-common/built-in.o
                0x0000000017802094                force_idle_bus
 .text.setup_i2c
                0x00000000178021b8       0xe0 arch/arm/imx-common/built-in.o
                0x00000000178021b8                setup_i2c
 .text.enable_caches
                0x0000000017802298       0x34 arch/arm/imx-common/built-in.o
                0x0000000017802298                enable_caches
 .text.v7_outer_cache_enable
                0x00000000178022cc       0x58 arch/arm/imx-common/built-in.o
                0x00000000178022cc                v7_outer_cache_enable
 .text.v7_outer_cache_disable
                0x0000000017802324       0x18 arch/arm/imx-common/built-in.o
                0x0000000017802324                v7_outer_cache_disable
 .text.init_aips
                0x000000001780233c       0xb4 arch/arm/imx-common/built-in.o
                0x000000001780233c                init_aips
 .text.imx_set_wdog_powerdown
                0x00000000178023f0       0x7c arch/arm/imx-common/built-in.o
                0x00000000178023f0                imx_set_wdog_powerdown
 .text.init_src
                0x000000001780246c       0x18 arch/arm/imx-common/built-in.o
                0x000000001780246c                init_src
 .text.boot_mode_apply
                0x0000000017802484       0x28 arch/arm/imx-common/built-in.o
                0x0000000017802484                boot_mode_apply
 .text.board_video_skip
                0x00000000178024ac      0x164 arch/arm/imx-common/built-in.o
                0x00000000178024ac                board_video_skip
 .text.detect_hdmi
                0x0000000017802610       0x18 arch/arm/imx-common/built-in.o
                0x0000000017802610                detect_hdmi
 .text.create_usage
                0x0000000017802628       0xa0 arch/arm/imx-common/built-in.o
 .text.do_boot_mode
                0x00000000178026c8       0xd0 arch/arm/imx-common/built-in.o
 .text.add_board_boot_modes
                0x0000000017802798       0x60 arch/arm/imx-common/built-in.o
                0x0000000017802798                add_board_boot_modes
 .text          0x00000000178027f8       0x90 arch/arm/lib/built-in.o
                0x00000000178027f8                _main
 .text.relocate_vectors
                0x0000000017802888       0x70 arch/arm/lib/built-in.o
                0x0000000017802888                relocate_vectors
                0x0000000017802894                relocate_code
 .text.arch_fixup_fdt
                0x00000000178028f8       0x38 arch/arm/lib/built-in.o
                0x00000000178028f8                arch_fixup_fdt
 .text.boot_jump_linux
                0x0000000017802930       0xc4 arch/arm/lib/built-in.o
 .text.arch_lmb_reserve
                0x00000000178029f4       0x24 arch/arm/lib/built-in.o
                0x00000000178029f4                arch_lmb_reserve
 .text.setup_board_tags
                0x0000000017802a18        0x4 arch/arm/lib/built-in.o
                0x0000000017802a18                setup_board_tags
 .text.boot_prep_linux
                0x0000000017802a1c      0x1d0 arch/arm/lib/built-in.o
 .text.do_bootm_linux
                0x0000000017802bec       0x60 arch/arm/lib/built-in.o
                0x0000000017802bec                do_bootm_linux
 .text.bootz_setup
                0x0000000017802c4c       0x60 arch/arm/lib/built-in.o
                0x0000000017802c4c                bootz_setup
 .text.boot_prep_vxworks
                0x0000000017802cac       0x4c arch/arm/lib/built-in.o
                0x0000000017802cac                boot_prep_vxworks
 .text.boot_jump_vxworks
                0x0000000017802cf8       0x14 arch/arm/lib/built-in.o
                0x0000000017802cf8                boot_jump_vxworks
 .text.pl310_background_op_all_ways
                0x0000000017802d0c       0x3c arch/arm/lib/built-in.o
 .text.v7_outer_cache_inval_all
                0x0000000017802d48        0xc arch/arm/lib/built-in.o
                0x0000000017802d48                v7_outer_cache_inval_all
 .text.v7_outer_cache_flush_all
                0x0000000017802d54        0xc arch/arm/lib/built-in.o
                0x0000000017802d54                v7_outer_cache_flush_all
 .text.v7_outer_cache_flush_range
                0x0000000017802d60       0x30 arch/arm/lib/built-in.o
                0x0000000017802d60                v7_outer_cache_flush_range
 .text.v7_outer_cache_inval_range
                0x0000000017802d90       0x80 arch/arm/lib/built-in.o
                0x0000000017802d90                v7_outer_cache_inval_range
 .text.arch_reserve_stacks
                0x0000000017802e10       0x1c arch/arm/lib/built-in.o
                0x0000000017802e10                arch_reserve_stacks
 .text.interrupt_init
                0x0000000017802e2c       0x1c arch/arm/lib/built-in.o
                0x0000000017802e2c                interrupt_init
 .text.enable_interrupts
                0x0000000017802e48        0x4 arch/arm/lib/built-in.o
                0x0000000017802e48                enable_interrupts
 .text.disable_interrupts
                0x0000000017802e4c        0x8 arch/arm/lib/built-in.o
                0x0000000017802e4c                disable_interrupts
 .text.bad_mode
                0x0000000017802e54       0x10 arch/arm/lib/built-in.o
                0x0000000017802e54                bad_mode
 .text.show_regs
                0x0000000017802e64      0x174 arch/arm/lib/built-in.o
                0x0000000017802e64                show_regs
 .text.do_undefined_instruction
                0x0000000017802fd8       0x24 arch/arm/lib/built-in.o
                0x0000000017802fd8                do_undefined_instruction
 .text.do_software_interrupt
                0x0000000017802ffc       0x24 arch/arm/lib/built-in.o
                0x0000000017802ffc                do_software_interrupt
 .text.do_prefetch_abort
                0x0000000017803020       0x24 arch/arm/lib/built-in.o
                0x0000000017803020                do_prefetch_abort
 .text.do_data_abort
                0x0000000017803044       0x24 arch/arm/lib/built-in.o
                0x0000000017803044                do_data_abort
 .text.do_not_used
                0x0000000017803068       0x24 arch/arm/lib/built-in.o
                0x0000000017803068                do_not_used
 .text.do_fiq   0x000000001780308c       0x24 arch/arm/lib/built-in.o
                0x000000001780308c                do_fiq
 .text.do_irq   0x00000000178030b0       0x24 arch/arm/lib/built-in.o
                0x00000000178030b0                do_irq
 .text.do_reset
                0x00000000178030d4       0x30 arch/arm/lib/built-in.o
                0x00000000178030d4                do_reset
 .text.flush_cache
                0x0000000017803104        0x8 arch/arm/lib/built-in.o
                0x0000000017803104                flush_cache
 .text.cp_delay
                0x000000001780310c       0x30 arch/arm/lib/built-in.o
 .text.arm_init_domains
                0x000000001780313c        0x4 arch/arm/lib/built-in.o
                0x000000001780313c                arm_init_domains
 .text.set_section_dcache
                0x0000000017803140       0x14 arch/arm/lib/built-in.o
                0x0000000017803140                set_section_dcache
 .text.mmu_set_region_dcache_behaviour
                0x0000000017803154       0x50 arch/arm/lib/built-in.o
                0x0000000017803154                mmu_set_region_dcache_behaviour
 .text.dram_bank_mmu_setup
                0x00000000178031a4       0x44 arch/arm/lib/built-in.o
                0x00000000178031a4                dram_bank_mmu_setup
 .text.icache_enable
                0x00000000178031e8       0x18 arch/arm/lib/built-in.o
                0x00000000178031e8                icache_enable
 .text.icache_disable
                0x0000000017803200       0x20 arch/arm/lib/built-in.o
                0x0000000017803200                icache_disable
 .text.icache_status
                0x0000000017803220        0xc arch/arm/lib/built-in.o
                0x0000000017803220                icache_status
 .text.dcache_enable
                0x000000001780322c       0x78 arch/arm/lib/built-in.o
                0x000000001780322c                dcache_enable
 .text.dcache_disable
                0x00000000178032a4       0x2c arch/arm/lib/built-in.o
                0x00000000178032a4                dcache_disable
 .text.dcache_status
                0x00000000178032d0        0xc arch/arm/lib/built-in.o
                0x00000000178032d0                dcache_status
 .text.pfuze_mode_init
                0x00000000178032dc       0xdc board/freescale/common/built-in.o
                0x00000000178032dc                pfuze_mode_init
 .text.pfuze_common_init
                0x00000000178033b8      0x10c board/freescale/common/built-in.o
                0x00000000178033b8                pfuze_common_init
 .text.enable_rgb
                0x00000000178034c4       0x24 board/freescale/mx6sabresd/built-in.o
 .text.do_enable_hdmi
                0x00000000178034e8       0x18 board/freescale/mx6sabresd/built-in.o
 .text.dram_init
                0x0000000017803500       0x18 board/freescale/mx6sabresd/built-in.o
                0x0000000017803500                dram_init
 .text.board_mmc_get_env_dev
                0x0000000017803518        0x8 board/freescale/mx6sabresd/built-in.o
                0x0000000017803518                board_mmc_get_env_dev
 .text.board_mmc_getcd
                0x0000000017803520       0x60 board/freescale/mx6sabresd/built-in.o
                0x0000000017803520                board_mmc_getcd
 .text.board_mmc_init
                0x0000000017803580       0xb8 board/freescale/mx6sabresd/built-in.o
                0x0000000017803580                board_mmc_init
 .text.overwrite_console
                0x0000000017803638        0x8 board/freescale/mx6sabresd/built-in.o
                0x0000000017803638                overwrite_console
 .text.board_eth_init
                0x0000000017803640       0x5c board/freescale/mx6sabresd/built-in.o
                0x0000000017803640                board_eth_init
 .text.board_ehci_hcd_init
                0x000000001780369c       0x28 board/freescale/mx6sabresd/built-in.o
                0x000000001780369c                board_ehci_hcd_init
 .text.board_ehci_power
                0x00000000178036c4       0x48 board/freescale/mx6sabresd/built-in.o
                0x00000000178036c4                board_ehci_power
 .text.board_early_init_f
                0x000000001780370c       0x8c board/freescale/mx6sabresd/built-in.o
                0x000000001780370c                board_early_init_f
 .text.board_init
                0x0000000017803798       0x7c board/freescale/mx6sabresd/built-in.o
                0x0000000017803798                board_init
 .text.power_init_board
                0x0000000017803814       0x90 board/freescale/mx6sabresd/built-in.o
                0x0000000017803814                power_init_board
 .text.board_spi_cs_gpio
                0x00000000178038a4       0x10 board/freescale/mx6sabresd/built-in.o
                0x00000000178038a4                board_spi_cs_gpio
 .text.board_late_init
                0x00000000178038b4       0xc4 board/freescale/mx6sabresd/built-in.o
                0x00000000178038b4                board_late_init
 .text.checkboard
                0x0000000017803978       0x18 board/freescale/mx6sabresd/built-in.o
                0x0000000017803978                checkboard
 .text.do_go_exec
                0x0000000017803990       0x18 cmd/built-in.o
                0x0000000017803990                do_go_exec
 .text.do_go    0x00000000178039a8       0x70 cmd/built-in.o
 .text.do_bootm
                0x0000000017803a18      0x108 cmd/built-in.o
                0x0000000017803a18                do_bootm
 .text.do_bootd
                0x0000000017803b20       0x20 cmd/built-in.o
                0x0000000017803b20                do_bootd
 .text.image_info
                0x0000000017803b40       0xd0 cmd/built-in.o
 .text.do_iminfo
                0x0000000017803c10       0x60 cmd/built-in.o
 .text.bootm_maybe_autostart
                0x0000000017803c70       0x78 cmd/built-in.o
                0x0000000017803c70                bootm_maybe_autostart
 .text.do_bootz
                0x0000000017803ce8       0xf8 cmd/built-in.o
                0x0000000017803ce8                do_bootz
 .text.do_help  0x0000000017803de0       0x48 cmd/built-in.o
 .text.do_version
                0x0000000017803e28       0x38 cmd/built-in.o
 .text.source   0x0000000017803e60       0xdc cmd/built-in.o
                0x0000000017803e60                source
 .text.do_source
                0x0000000017803f3c       0x44 cmd/built-in.o
 .text.print_num
                0x0000000017803f80       0x18 cmd/built-in.o
 .text.do_bdinfo
                0x0000000017803f98      0x18c cmd/built-in.o
 .text.bootefi_open_dp
                0x0000000017804124       0x14 cmd/built-in.o
 .text.do_bootefi_exec
                0x0000000017804138      0x218 cmd/built-in.o
 .text.do_bootefi
                0x0000000017804350       0x8c cmd/built-in.o
 .text.efi_set_bootdev
                0x00000000178043dc       0xe8 cmd/built-in.o
                0x00000000178043dc                efi_set_bootdev
 .text.parse_argv
                0x00000000178044c4       0x60 cmd/built-in.o
 .text.do_icache
                0x0000000017804524       0x88 cmd/built-in.o
 .text.do_dcache
                0x00000000178045ac       0x88 cmd/built-in.o
 .text.do_coninfo
                0x0000000017804634       0xb0 cmd/built-in.o
 .text.do_echo  0x00000000178046e4       0xb0 cmd/built-in.o
 .text.load_elf_image_shdr
                0x0000000017804794       0x8c cmd/built-in.o
 .text.valid_elf_image
                0x0000000017804820       0x4c cmd/built-in.o
                0x0000000017804820                valid_elf_image
 .text.do_bootelf
                0x000000001780486c      0x1b4 cmd/built-in.o
                0x000000001780486c                do_bootelf
 .text.do_bootvx
                0x0000000017804a20      0x348 cmd/built-in.o
                0x0000000017804a20                do_bootvx
 .text.do_exit  0x0000000017804d68       0x30 cmd/built-in.o
 .text.do_ext4_size
                0x0000000017804d98       0x18 cmd/built-in.o
                0x0000000017804d98                do_ext4_size
 .text.do_ext4_load
                0x0000000017804db0       0x18 cmd/built-in.o
                0x0000000017804db0                do_ext4_load
 .text.do_ext4_ls
                0x0000000017804dc8       0x18 cmd/built-in.o
                0x0000000017804dc8                do_ext4_ls
 .text.do_ext4_write
                0x0000000017804de0       0x18 cmd/built-in.o
                0x0000000017804de0                do_ext4_write
 .text.do_ext2load
                0x0000000017804df8       0x18 cmd/built-in.o
                0x0000000017804df8                do_ext2load
 .text.do_ext2ls
                0x0000000017804e10       0x18 cmd/built-in.o
 .text.do_fat_size
                0x0000000017804e28       0x18 cmd/built-in.o
                0x0000000017804e28                do_fat_size
 .text.do_fat_fsload
                0x0000000017804e40       0x18 cmd/built-in.o
                0x0000000017804e40                do_fat_fsload
 .text.do_fat_ls
                0x0000000017804e58       0x18 cmd/built-in.o
 .text.do_fat_fsinfo
                0x0000000017804e70       0x90 cmd/built-in.o
 .text.fdt_valid
                0x0000000017804f00       0xbc cmd/built-in.o
 .text.is_printable_string
                0x0000000017804fbc       0x88 cmd/built-in.o
 .text.print_data
                0x0000000017805044      0x170 cmd/built-in.o
 .text.set_working_fdt_addr
                0x00000000178051b4       0x1c cmd/built-in.o
                0x00000000178051b4                set_working_fdt_addr
 .text.do_fdt   0x00000000178051d0      0xe80 cmd/built-in.o
 .text.do_size_wrapper
                0x0000000017806050       0x18 cmd/built-in.o
 .text.do_load_wrapper
                0x0000000017806068       0x68 cmd/built-in.o
 .text.do_save_wrapper
                0x00000000178060d0       0x18 cmd/built-in.o
 .text.do_ls_wrapper
                0x00000000178060e8       0x18 cmd/built-in.o
 .text.do_fstype_wrapper
                0x0000000017806100        0x4 cmd/built-in.o
 .text.strtou32
                0x0000000017806104       0x48 cmd/built-in.o
 .text.do_fuse  0x000000001780614c      0x354 cmd/built-in.o
 .text.name_to_gpio
                0x00000000178064a0        0xc cmd/built-in.o
                0x00000000178064a0                name_to_gpio
 .text.do_gpio  0x00000000178064ac      0x1c4 cmd/built-in.o
 .text.do_i2c   0x0000000017806670       0x5c cmd/built-in.o
 .text.do_i2c_bus_speed
                0x00000000178066cc       0x78 cmd/built-in.o
 .text.do_i2c_reset
                0x0000000017806744       0x30 cmd/built-in.o
 .text.do_i2c_probe
                0x0000000017806774       0x9c cmd/built-in.o
 .text.do_i2c_bus_num
                0x0000000017806810       0xbc cmd/built-in.o
 .text.do_i2c_show_bus
                0x00000000178068cc       0xdc cmd/built-in.o
 .text.get_alen.constprop.4
                0x00000000178069a8       0x3c cmd/built-in.o
 .text.do_i2c_crc
                0x00000000178069e4      0x120 cmd/built-in.o
 .text.do_i2c_write
                0x0000000017806b04      0x14c cmd/built-in.o
 .text.do_i2c_mw
                0x0000000017806c50       0xfc cmd/built-in.o
 .text.do_i2c_read
                0x0000000017806d4c       0xbc cmd/built-in.o
 .text.do_i2c_md
                0x0000000017806e08      0x1e4 cmd/built-in.o
 .text.mod_i2c_mem.isra.3
                0x0000000017806fec      0x1fc cmd/built-in.o
 .text.do_i2c_nm
                0x00000000178071e8        0x8 cmd/built-in.o
 .text.do_i2c_mm
                0x00000000178071f0        0x8 cmd/built-in.o
 .text.do_i2c_loop
                0x00000000178071f8       0xe0 cmd/built-in.o
 .text.i2c_init_board
                0x00000000178072d8        0x4 cmd/built-in.o
                0x00000000178072d8                i2c_init_board
 .text.evalexp  0x00000000178072dc       0x78 cmd/built-in.o
 .text.evalstr  0x0000000017807354       0x6c cmd/built-in.o
 .text.binary_test
                0x00000000178073c0      0x1b4 cmd/built-in.o
 .text.do_itest
                0x0000000017807574       0x98 cmd/built-in.o
 .text.bin_data_init
                0x000000001780760c       0x2c cmd/built-in.o
 .text.k_data_save
                0x0000000017807638       0x4c cmd/built-in.o
 .text.k_data_restore
                0x0000000017807684       0x4c cmd/built-in.o
 .text.getcxmodem
                0x00000000178076d0       0x20 cmd/built-in.o
 .text.load_serial_ymodem
                0x00000000178076f0       0xcc cmd/built-in.o
 .text.bin_data_char
                0x00000000178077bc       0x2c cmd/built-in.o
 .text.chk1.constprop.1
                0x00000000178077e8       0x2c cmd/built-in.o
 .text.s1_sendpacket.constprop.2
                0x0000000017807814       0x50 cmd/built-in.o
 .text.load_serial
                0x0000000017807864      0x1f8 cmd/built-in.o
 .text.do_load_serial
                0x0000000017807a5c       0xdc cmd/built-in.o
 .text.do_load_serial_bin
                0x0000000017807b38      0x798 cmd/built-in.o
 .text.do_mem_mw
                0x00000000178082d0       0xc0 cmd/built-in.o
 .text.do_mem_loop
                0x0000000017808390       0xf8 cmd/built-in.o
 .text.do_mem_md
                0x0000000017808488       0xe8 cmd/built-in.o
 .text.do_mem_cmp
                0x0000000017808570      0x168 cmd/built-in.o
 .text.do_mem_base
                0x00000000178086d8       0x40 cmd/built-in.o
 .text.do_mem_cp
                0x0000000017808718       0xd8 cmd/built-in.o
 .text.do_mem_crc
                0x00000000178087f0       0x4c cmd/built-in.o
 .text.mod_mem.isra.2
                0x000000001780883c      0x168 cmd/built-in.o
 .text.do_mem_mm
                0x00000000178089a4        0x8 cmd/built-in.o
 .text.do_mem_nm
                0x00000000178089ac        0x8 cmd/built-in.o
 .text.extract_range
                0x00000000178089b4       0xe0 cmd/built-in.o
 .text.do_mii   0x0000000017808a94      0x8cc cmd/built-in.o
 .text.do_mdio  0x0000000017809360      0x4c0 cmd/built-in.o
 .text.do_sleep
                0x0000000017809820       0x70 cmd/built-in.o
 .text.do_mmcops
                0x0000000017809890       0xb4 cmd/built-in.o
 .text.init_mmc_device
                0x0000000017809944       0x54 cmd/built-in.o
 .text.do_mmc_rescan
                0x0000000017809998       0x24 cmd/built-in.o
 .text.do_mmc_rst_func
                0x00000000178099bc       0x9c cmd/built-in.o
 .text.do_mmc_partconf
                0x0000000017809a58       0xb4 cmd/built-in.o
 .text.do_mmc_boot_resize
                0x0000000017809b0c       0xcc cmd/built-in.o
 .text.do_mmc_bootbus
                0x0000000017809bd8       0xb4 cmd/built-in.o
 .text.do_mmc_hwpartition
                0x0000000017809c8c      0x504 cmd/built-in.o
 .text.do_mmc_list
                0x000000001780a190       0x14 cmd/built-in.o
 .text.do_mmc_dev
                0x000000001780a1a4      0x140 cmd/built-in.o
 .text.do_mmc_part
                0x000000001780a2e4       0x60 cmd/built-in.o
 .text.do_mmc_erase
                0x000000001780a344       0xec cmd/built-in.o
 .text.do_mmc_write
                0x000000001780a430      0x104 cmd/built-in.o
 .text.do_mmc_read
                0x000000001780a534       0xf0 cmd/built-in.o
 .text.do_mmcinfo
                0x000000001780a624      0x378 cmd/built-in.o
 .text.do_mmc_setdsr
                0x000000001780a99c       0xb0 cmd/built-in.o
 .text.cpu_cmd  0x000000001780aa4c      0x160 cmd/built-in.o
 .text.netboot_common
                0x000000001780abac      0x2a0 cmd/built-in.o
 .text.do_bootp
                0x000000001780ae4c        0xc cmd/built-in.o
 .text.do_dhcp  0x000000001780ae58        0xc cmd/built-in.o
 .text.do_nfs   0x000000001780ae64        0xc cmd/built-in.o
 .text.do_tftpb
                0x000000001780ae70       0x40 cmd/built-in.o
                0x000000001780ae70                do_tftpb
 .text.do_ping  0x000000001780aeb0       0x74 cmd/built-in.o
 .text.pci_cfg_write
                0x000000001780af24       0x3c cmd/built-in.o
 .text.pci_read_config
                0x000000001780af60       0x48 cmd/built-in.o
 .text.pci_field_width
                0x000000001780afa8       0x20 cmd/built-in.o
 .text.pci_show_regs
                0x000000001780afc8       0x78 cmd/built-in.o
 .text.pci_cfg_modify.isra.1
                0x000000001780b040       0xf8 cmd/built-in.o
 .text.pci_header_show
                0x000000001780b138       0xc8 cmd/built-in.o
                0x000000001780b138                pci_header_show
 .text.pciinfo_header
                0x000000001780b200       0x40 cmd/built-in.o
                0x000000001780b200                pciinfo_header
 .text.pci_header_show_brief
                0x000000001780b240       0x80 cmd/built-in.o
                0x000000001780b240                pci_header_show_brief
 .text.pciinfo  0x000000001780b2c0      0x150 cmd/built-in.o
                0x000000001780b2c0                pciinfo
 .text.do_pci   0x000000001780b410      0x3c0 cmd/built-in.o
 .text.bytes_per_second
                0x000000001780b7d0       0x50 cmd/built-in.o
 .text.do_spi_flash
                0x000000001780b820      0x880 cmd/built-in.o
 .text.substitute
                0x000000001780c0a0       0xf4 cmd/built-in.o
 .text.get_arg  0x000000001780c194       0x5c cmd/built-in.o
 .text.regex_sub
                0x000000001780c1f0      0x3e8 cmd/built-in.o
 .text.do_setexpr
                0x000000001780c5d8      0x1a0 cmd/built-in.o
 .text.do_false
                0x000000001780c778        0x8 cmd/built-in.o
 .text.do_true  0x000000001780c780        0x8 cmd/built-in.o
 .text.do_test  0x000000001780c788      0x350 cmd/built-in.o
 .text.usb_get_class_desc
                0x000000001780cad8       0xbc cmd/built-in.o
 .text.usb_find_device
                0x000000001780cb94       0x3c cmd/built-in.o
 .text.usb_show_tree_graph
                0x000000001780cbd0      0x224 cmd/built-in.o
 .text.usb_display_class_sub
                0x000000001780cdf4      0x180 cmd/built-in.o
 .text.usb_display_string
                0x000000001780cf74       0x44 cmd/built-in.o
 .text.usb_display_config
                0x000000001780cfb8      0x214 cmd/built-in.o
 .text.do_usbboot
                0x000000001780d1cc        0xc cmd/built-in.o
 .text.usb_display_desc.part.5
                0x000000001780d1d8      0x12c cmd/built-in.o
 .text.do_usb_start
                0x000000001780d304       0x44 cmd/built-in.o
 .text.usb_show_tree
                0x000000001780d348       0x54 cmd/built-in.o
                0x000000001780d348                usb_show_tree
 .text.do_usb   0x000000001780d39c      0x758 cmd/built-in.o
 .text.do_fastboot
                0x000000001780daf4       0xe0 cmd/built-in.o
 .text.ums_read_sector
                0x000000001780dbd4       0x1c cmd/built-in.o
 .text.ums_write_sector
                0x000000001780dbf0       0x1c cmd/built-in.o
 .text.ums_fini
                0x000000001780dc0c       0x60 cmd/built-in.o
 .text.do_usb_mass_storage
                0x000000001780dc6c      0x394 cmd/built-in.o
                0x000000001780dc6c                do_usb_mass_storage
 .text.do_imgextract
                0x000000001780e000      0x294 cmd/built-in.o
 .text.do_dfu   0x000000001780e294      0x17c cmd/built-in.o
 .text.do_env_delete
                0x000000001780e410       0xa4 cmd/built-in.o
 .text.do_env_exists
                0x000000001780e4b4       0x64 cmd/built-in.o
 .text.do_env_save
                0x000000001780e518       0x2c cmd/built-in.o
 .text.do_env   0x000000001780e544       0x5c cmd/built-in.o
 .text.env_print
                0x000000001780e5a0       0xc0 cmd/built-in.o
 .text.do_env_print
                0x000000001780e660       0xc4 cmd/built-in.o
 .text.do_env_import
                0x000000001780e724      0x280 cmd/built-in.o
 .text.do_env_default
                0x000000001780e9a4       0xb8 cmd/built-in.o
 .text._do_env_set.isra.1
                0x000000001780ea5c      0x1c4 cmd/built-in.o
 .text.do_env_set
                0x000000001780ec20       0x20 cmd/built-in.o
 .text.get_env_id
                0x000000001780ec40       0x10 cmd/built-in.o
                0x000000001780ec40                get_env_id
 .text.setenv   0x000000001780ec50       0x5c cmd/built-in.o
                0x000000001780ec50                setenv
 .text.setenv_ulong
                0x000000001780ecac       0x20 cmd/built-in.o
                0x000000001780ecac                setenv_ulong
 .text.setenv_hex
                0x000000001780eccc       0x34 cmd/built-in.o
                0x000000001780eccc                setenv_hex
 .text.do_env_export
                0x000000001780ed00      0x270 cmd/built-in.o
 .text.envmatch
                0x000000001780ef70       0x70 cmd/built-in.o
                0x000000001780ef70                envmatch
 .text.getenv_f
                0x000000001780efe0       0xc4 cmd/built-in.o
                0x000000001780efe0                getenv_f
 .text.getenv   0x000000001780f0a4       0x78 cmd/built-in.o
                0x000000001780f0a4                getenv
 .text.getenv_hex
                0x000000001780f11c       0x3c cmd/built-in.o
                0x000000001780f11c                getenv_hex
 .text.getenv_ulong
                0x000000001780f158       0x30 cmd/built-in.o
                0x000000001780f158                getenv_ulong
 .text.do_env_edit.part.3
                0x000000001780f188       0x9c cmd/built-in.o
 .text.do_env_edit
                0x000000001780f224       0x2c cmd/built-in.o
 .text.common_diskboot
                0x000000001780f250      0x234 cmd/built-in.o
                0x000000001780f250                common_diskboot
 .text.board_init_f_alloc_reserve
                0x000000001780f484        0xc common/built-in.o
                0x000000001780f484                board_init_f_alloc_reserve
 .text.board_init_f_init_reserve
                0x000000001780f490       0x20 common/built-in.o
                0x000000001780f490                board_init_f_init_reserve
 .text.show_boot_progress
                0x000000001780f4b0        0x4 common/built-in.o
                0x000000001780f4b0                show_boot_progress
 .text.main_loop
                0x000000001780f4b4       0x28 common/built-in.o
                0x000000001780f4b4                main_loop
 .text.dummy    0x000000001780f4dc        0x4 common/built-in.o
 .text.get_version
                0x000000001780f4e0        0x8 common/built-in.o
                0x000000001780f4e0                get_version
 .text.jumptable_init
                0x000000001780f4e8      0x1e0 common/built-in.o
                0x000000001780f4e8                jumptable_init
 .text.hash_finish_crc32
                0x000000001780f6c8       0x30 common/built-in.o
 .text.hash_update_crc32
                0x000000001780f6f8       0x24 common/built-in.o
 .text.hash_init_crc32
                0x000000001780f71c       0x24 common/built-in.o
 .text.hash_lookup_algo
                0x000000001780f740       0x28 common/built-in.o
                0x000000001780f740                hash_lookup_algo
 .text.hash_command
                0x000000001780f768       0xb0 common/built-in.o
                0x000000001780f768                hash_command
 .text.b_reset  0x000000001780f818       0x1c common/built-in.o
 .text.static_get
                0x000000001780f834       0x1c common/built-in.o
 .text.static_peek
                0x000000001780f850        0xc common/built-in.o
 .text.file_peek
                0x000000001780f85c        0xc common/built-in.o
 .text.mapset   0x000000001780f868       0x20 common/built-in.o
 .text.syntax_err
                0x000000001780f888        0xc common/built-in.o
 .text.free_pipe_list
                0x000000001780f894       0xf0 common/built-in.o
 .text.xmalloc  0x000000001780f984       0x20 common/built-in.o
 .text.new_pipe
                0x000000001780f9a4       0x28 common/built-in.o
 .text.xrealloc
                0x000000001780f9cc       0x20 common/built-in.o
 .text.done_command
                0x000000001780f9ec       0x8c common/built-in.o
 .text.done_pipe
                0x000000001780fa78       0x48 common/built-in.o
 .text.done_word
                0x000000001780fac0      0x2e4 common/built-in.o
 .text.do_showvar
                0x000000001780fda4       0xf0 common/built-in.o
 .text.is_assignment
                0x000000001780fe94       0x54 common/built-in.o
 .text.file_get
                0x000000001780fee8      0x1e4 common/built-in.o
 .text.b_addchr
                0x00000000178100cc       0x80 common/built-in.o
 .text.b_addqchr
                0x000000001781014c       0x50 common/built-in.o
 .text.get_local_var
                0x000000001781019c       0x94 common/built-in.o
                0x000000001781019c                get_local_var
 .text.set_local_var
                0x0000000017810230      0x1b8 common/built-in.o
                0x0000000017810230                set_local_var
 .text.insert_var_value_sub
                0x00000000178103e8      0x2a8 common/built-in.o
 .text.parse_string_outer
                0x0000000017810690       0xe8 common/built-in.o
                0x0000000017810690                parse_string_outer
 .text.run_list_real
                0x0000000017810778      0x7e4 common/built-in.o
 .text.parse_stream_outer
                0x0000000017810f5c      0x6cc common/built-in.o
 .text.parse_file_outer
                0x0000000017811628       0x44 common/built-in.o
                0x0000000017811628                parse_file_outer
 .text.u_boot_hush_start
                0x000000001781166c       0x54 common/built-in.o
                0x000000001781166c                u_boot_hush_start
 .text.bootdelay_process
                0x00000000178116c0       0x4c common/built-in.o
                0x00000000178116c0                bootdelay_process
 .text.autoboot_command
                0x000000001781170c       0xd8 common/built-in.o
                0x000000001781170c                autoboot_command
 .text.display_text_info
                0x00000000178117e4        0x8 common/built-in.o
 .text.setup_mon_len
                0x00000000178117ec       0x20 common/built-in.o
 .text.reserve_round_4k
                0x000000001781180c       0x18 common/built-in.o
 .text.reserve_mmu
                0x0000000017811824       0x38 common/built-in.o
 .text.reserve_trace
                0x000000001781185c        0x8 common/built-in.o
 .text.reserve_uboot
                0x0000000017811864       0x30 common/built-in.o
 .text.reserve_malloc
                0x0000000017811894       0x18 common/built-in.o
 .text.setup_machine
                0x00000000178118ac       0x14 common/built-in.o
 .text.reserve_global_data
                0x00000000178118c0       0x1c common/built-in.o
 .text.reserve_fdt
                0x00000000178118dc       0x4c common/built-in.o
 .text.display_new_sp
                0x0000000017811928        0x8 common/built-in.o
 .text.initf_console_record
                0x0000000017811930        0x8 common/built-in.o
 .text.reserve_arch
                0x0000000017811938        0x8 common/built-in.o
                0x0000000017811938                reserve_arch
 .text.arch_cpu_init_dm
                0x0000000017811940        0x8 common/built-in.o
                0x0000000017811940                arch_cpu_init_dm
 .text.announce_dram_init
                0x0000000017811948       0x18 common/built-in.o
 .text.init_func_i2c
                0x0000000017811960       0x28 common/built-in.o
 .text.init_baud_rate
                0x0000000017811988       0x2c common/built-in.o
 .text.mark_bootstage
                0x00000000178119b4       0x14 common/built-in.o
 .text.initf_dm
                0x00000000178119c8        0x8 common/built-in.o
 .text.setup_reloc
                0x00000000178119d0       0x34 common/built-in.o
 .text.reloc_fdt
                0x0000000017811a04       0x3c common/built-in.o
 .text.reserve_board
                0x0000000017811a40       0x38 common/built-in.o
 .text.coloured_LED_init
                0x0000000017811a78        0x4 common/built-in.o
                0x0000000017811a78                coloured_LED_init
 .text.red_led_on
                0x0000000017811a7c        0x4 common/built-in.o
                0x0000000017811a7c                red_led_on
 .text.board_add_ram_info
                0x0000000017811a80        0x4 common/built-in.o
                0x0000000017811a80                board_add_ram_info
 .text.show_dram_config
                0x0000000017811a84       0x34 common/built-in.o
 .text.dram_init_banksize
                0x0000000017811ab8       0x20 common/built-in.o
                0x0000000017811ab8                dram_init_banksize
 .text.setup_dram_config
                0x0000000017811ad8       0x10 common/built-in.o
 .text.board_get_usable_ram_top
                0x0000000017811ae8       0x14 common/built-in.o
                0x0000000017811ae8                board_get_usable_ram_top
 .text.board_reserve_ram_top
                0x0000000017811afc        0x4 common/built-in.o
                0x0000000017811afc                board_reserve_ram_top
 .text.setup_dest_addr
                0x0000000017811b00       0x50 common/built-in.o
 .text.reserve_stacks
                0x0000000017811b50       0x1c common/built-in.o
 .text.board_init_f
                0x0000000017811b6c       0x28 common/built-in.o
                0x0000000017811b6c                board_init_f
 .text.bootstage_relocate
                0x0000000017811b94        0x8 common/built-in.o
 .text.initr_trace
                0x0000000017811b9c        0x8 common/built-in.o
 .text.initr_reloc
                0x0000000017811ba4       0x18 common/built-in.o
 .text.initr_barrier
                0x0000000017811bbc        0x8 common/built-in.o
 .text.initr_console_record
                0x0000000017811bc4        0x8 common/built-in.o
 .text.initr_announce
                0x0000000017811bcc        0x8 common/built-in.o
 .text.run_main_loop
                0x0000000017811bd4        0xc common/built-in.o
 .text.initr_net
                0x0000000017811be0       0x1c common/built-in.o
 .text.initr_ethaddr
                0x0000000017811bfc       0x20 common/built-in.o
 .text.initr_enable_interrupts
                0x0000000017811c1c       0x10 common/built-in.o
 .text.initr_jumptable
                0x0000000017811c2c       0x10 common/built-in.o
 .text.initr_pci
                0x0000000017811c3c       0x10 common/built-in.o
 .text.initr_env
                0x0000000017811c4c       0x30 common/built-in.o
 .text.initr_mmc
                0x0000000017811c7c       0x20 common/built-in.o
 .text.initr_serial
                0x0000000017811c9c       0x10 common/built-in.o
 .text.initr_bootstage
                0x0000000017811cac       0x14 common/built-in.o
 .text.initr_dm
                0x0000000017811cc0       0x14 common/built-in.o
 .text.initr_malloc
                0x0000000017811cd4       0x24 common/built-in.o
 .text.initr_reloc_global_data
                0x0000000017811cf8       0x38 common/built-in.o
 .text.initr_caches
                0x0000000017811d30       0x10 common/built-in.o
 .text.cpu_secondary_init_r
                0x0000000017811d40        0x4 common/built-in.o
                0x0000000017811d40                cpu_secondary_init_r
 .text.initr_secondary_cpu
                0x0000000017811d44       0x10 common/built-in.o
 .text.board_init_r
                0x0000000017811d54       0x14 common/built-in.o
                0x0000000017811d54                board_init_r
 .text.show_board_info
                0x0000000017811d68        0x4 common/built-in.o
                0x0000000017811d68                show_board_info
 .text.bootm_find_images
                0x0000000017811d6c       0xa8 common/built-in.o
                0x0000000017811d6c                bootm_find_images
 .text.bootm_decomp_image
                0x0000000017811e14      0x154 common/built-in.o
                0x0000000017811e14                bootm_decomp_image
 .text.bootm_disable_interrupts
                0x0000000017811f68       0x18 common/built-in.o
                0x0000000017811f68                bootm_disable_interrupts
 .text.do_bootm_states
                0x0000000017811f80      0x7c0 common/built-in.o
                0x0000000017811f80                do_bootm_states
 .text.copy_args
                0x0000000017812740       0x50 common/built-in.o
 .text.do_bootm_rtems
                0x0000000017812790       0x40 common/built-in.o
 .text.do_bootm_plan9
                0x00000000178127d0       0xa4 common/built-in.o
 .text.do_bootm_standalone
                0x0000000017812874       0x64 common/built-in.o
 .text.do_bootm_qnxelf
                0x00000000178128d8       0x58 common/built-in.o
 .text.do_bootm_netbsd
                0x0000000017812930       0xf8 common/built-in.o
 .text.do_bootvx_fdt
                0x0000000017812a28      0x118 common/built-in.o
                0x0000000017812a28                do_bootvx_fdt
 .text.do_bootm_vxworks
                0x0000000017812b40       0x24 common/built-in.o
 .text.boot_selected_os
                0x0000000017812b64       0x5c common/built-in.o
                0x0000000017812b64                boot_selected_os
 .text.bootm_os_get_boot_func
                0x0000000017812bc0       0x10 common/built-in.o
                0x0000000017812bc0                bootm_os_get_boot_func
 .text.regex_callback
                0x0000000017812bd0      0x134 common/built-in.o
 .text.env_attr_walk
                0x0000000017812d04      0x118 common/built-in.o
                0x0000000017812d04                env_attr_walk
 .text.env_attr_lookup
                0x0000000017812e1c       0x88 common/built-in.o
                0x0000000017812e1c                env_attr_lookup
 .text.clear_callback
                0x0000000017812ea4       0x10 common/built-in.o
 .text.find_env_callback
                0x0000000017812eb4       0x64 common/built-in.o
 .text.on_callbacks
                0x0000000017812f18       0x50 common/built-in.o
 .text.set_callback
                0x0000000017812f68       0x98 common/built-in.o
 .text.env_callback_init
                0x0000000017813000       0xc4 common/built-in.o
                0x0000000017813000                env_callback_init
 .text.skip_num
                0x00000000178130c4       0x74 common/built-in.o
 .text.clear_flags
                0x0000000017813138       0x10 common/built-in.o
 .text.on_flags
                0x0000000017813148       0x50 common/built-in.o
 .text.env_flags_parse_vartype
                0x0000000017813198       0x50 common/built-in.o
                0x0000000017813198                env_flags_parse_vartype
 .text.env_flags_parse_varaccess
                0x00000000178131e8       0x58 common/built-in.o
                0x00000000178131e8                env_flags_parse_varaccess
 .text.set_flags
                0x0000000017813240       0xb0 common/built-in.o
 .text.eth_validate_ethaddr_str
                0x00000000178132f0       0x94 common/built-in.o
                0x00000000178132f0                eth_validate_ethaddr_str
 .text.env_flags_init
                0x0000000017813384       0xd8 common/built-in.o
                0x0000000017813384                env_flags_init
 .text.env_flags_validate
                0x000000001781345c      0x29c common/built-in.o
                0x000000001781345c                env_flags_validate
 .text.mmc_get_env_addr
                0x00000000178136f8       0x10 common/built-in.o
                0x00000000178136f8                mmc_get_env_addr
 .text.env_init
                0x0000000017813708       0x1c common/built-in.o
                0x0000000017813708                env_init
 .text.saveenv  0x0000000017813724      0x130 common/built-in.o
                0x0000000017813724                saveenv
 .text.env_relocate_spec
                0x0000000017813854       0xf4 common/built-in.o
                0x0000000017813854                env_relocate_spec
 .text.fdt_find_and_setprop
                0x0000000017813948       0x70 common/built-in.o
                0x0000000017813948                fdt_find_and_setprop
 .text.fdt_find_or_add_subnode
                0x00000000178139b8       0x68 common/built-in.o
                0x00000000178139b8                fdt_find_or_add_subnode
 .text.fdt_root
                0x0000000017813a20       0x98 common/built-in.o
                0x0000000017813a20                fdt_root
 .text.fdt_initrd
                0x0000000017813ab8      0x1d0 common/built-in.o
                0x0000000017813ab8                fdt_initrd
 .text.fdt_chosen
                0x0000000017813c88       0xa8 common/built-in.o
                0x0000000017813c88                fdt_chosen
 .text.do_fixup_by_path
                0x0000000017813d30       0x54 common/built-in.o
                0x0000000017813d30                do_fixup_by_path
 .text.fdt_fixup_memory_banks
                0x0000000017813d84      0x198 common/built-in.o
                0x0000000017813d84                fdt_fixup_memory_banks
 .text.fdt_fixup_memory
                0x0000000017813f1c       0x24 common/built-in.o
                0x0000000017813f1c                fdt_fixup_memory
 .text.fdt_fixup_ethernet
                0x0000000017813f40      0x190 common/built-in.o
                0x0000000017813f40                fdt_fixup_ethernet
 .text.fdt_shrink_to_minimum
                0x00000000178140d0       0xd0 common/built-in.o
                0x00000000178140d0                fdt_shrink_to_minimum
 .text.miiphy_get_dev_by_name
                0x00000000178141a0       0x5c common/built-in.o
                0x00000000178141a0                miiphy_get_dev_by_name
 .text.miiphy_init
                0x00000000178141fc       0x24 common/built-in.o
                0x00000000178141fc                miiphy_init
 .text.mdio_alloc
                0x0000000017814220       0x30 common/built-in.o
                0x0000000017814220                mdio_alloc
 .text.mdio_register
                0x0000000017814250       0x8c common/built-in.o
                0x0000000017814250                mdio_register
 .text.mdio_unregister
                0x00000000178142dc       0x3c common/built-in.o
                0x00000000178142dc                mdio_unregister
 .text.mdio_list_devices
                0x0000000017814318       0x9c common/built-in.o
                0x0000000017814318                mdio_list_devices
 .text.miiphy_set_current_dev
                0x00000000178143b4       0x40 common/built-in.o
                0x00000000178143b4                miiphy_set_current_dev
 .text.miiphy_get_active_dev
                0x00000000178143f4       0x54 common/built-in.o
 .text.mdio_get_current_dev
                0x0000000017814448       0x10 common/built-in.o
                0x0000000017814448                mdio_get_current_dev
 .text.mdio_phydev_for_ethname
                0x0000000017814458       0x8c common/built-in.o
                0x0000000017814458                mdio_phydev_for_ethname
 .text.miiphy_get_current_dev
                0x00000000178144e4       0x18 common/built-in.o
                0x00000000178144e4                miiphy_get_current_dev
 .text.miiphy_read
                0x00000000178144fc       0x4c common/built-in.o
                0x00000000178144fc                miiphy_read
 .text.miiphy_write
                0x0000000017814548       0x40 common/built-in.o
                0x0000000017814548                miiphy_write
 .text.miiphy_listdev
                0x0000000017814588       0x74 common/built-in.o
                0x0000000017814588                miiphy_listdev
 .text.miiphy_info
                0x00000000178145fc       0x88 common/built-in.o
                0x00000000178145fc                miiphy_info
 .text.miiphy_speed
                0x0000000017814684       0x90 common/built-in.o
                0x0000000017814684                miiphy_speed
 .text.miiphy_duplex
                0x0000000017814714       0x90 common/built-in.o
                0x0000000017814714                miiphy_duplex
 .text.miiphy_is_1000base_x
                0x00000000178147a4        0x8 common/built-in.o
                0x00000000178147a4                miiphy_is_1000base_x
 .text.usb_set_maxpacket_ep
                0x00000000178147ac       0x68 common/built-in.o
 .text.usb_stop
                0x0000000017814814       0x5c common/built-in.o
                0x0000000017814814                usb_stop
 .text.usb_disable_asynch
                0x0000000017814870       0x20 common/built-in.o
                0x0000000017814870                usb_disable_asynch
 .text.usb_control_msg
                0x0000000017814890       0xc8 common/built-in.o
                0x0000000017814890                usb_control_msg
 .text.usb_get_descriptor
                0x0000000017814958       0x50 common/built-in.o
 .text.get_descriptor_len
                0x00000000178149a8       0x90 common/built-in.o
 .text.usb_get_string
                0x0000000017814a38       0x6c common/built-in.o
 .text.usb_string_sub
                0x0000000017814aa4      0x10c common/built-in.o
 .text.usb_bulk_msg
                0x0000000017814bb0       0x78 common/built-in.o
                0x0000000017814bb0                usb_bulk_msg
 .text.usb_maxpacket
                0x0000000017814c28       0x1c common/built-in.o
                0x0000000017814c28                usb_maxpacket
 .text.usb_clear_halt
                0x0000000017814c44       0x90 common/built-in.o
                0x0000000017814c44                usb_clear_halt
 .text.usb_get_configuration_len
                0x0000000017814cd4       0x74 common/built-in.o
                0x0000000017814cd4                usb_get_configuration_len
 .text.usb_get_configuration_no
                0x0000000017814d48       0x34 common/built-in.o
                0x0000000017814d48                usb_get_configuration_no
 .text.usb_set_interface
                0x0000000017814d7c       0xb8 common/built-in.o
                0x0000000017814d7c                usb_set_interface
 .text.usb_string
                0x0000000017814e34      0x108 common/built-in.o
                0x0000000017814e34                usb_string
 .text.usb_get_dev_index
                0x0000000017814f3c       0x24 common/built-in.o
                0x0000000017814f3c                usb_get_dev_index
 .text.usb_alloc_new_device
                0x0000000017814f60       0x94 common/built-in.o
                0x0000000017814f60                usb_alloc_new_device
 .text.usb_free_device
                0x0000000017814ff4       0x48 common/built-in.o
                0x0000000017814ff4                usb_free_device
 .text.usb_alloc_device
                0x000000001781503c        0x8 common/built-in.o
                0x000000001781503c                usb_alloc_device
 .text.usb_select_config
                0x0000000017815044      0x474 common/built-in.o
                0x0000000017815044                usb_select_config
 .text.usb_setup_device
                0x00000000178154b8      0x170 common/built-in.o
                0x00000000178154b8                usb_setup_device
 .text.usb_new_device
                0x0000000017815628       0x34 common/built-in.o
                0x0000000017815628                usb_new_device
 .text.usb_init
                0x000000001781565c      0x144 common/built-in.o
                0x000000001781565c                usb_init
 .text.board_usb_init
                0x00000000178157a0        0x8 common/built-in.o
                0x00000000178157a0                board_usb_init
 .text.board_usb_cleanup
                0x00000000178157a8        0x8 common/built-in.o
                0x00000000178157a8                board_usb_cleanup
 .text.usb_device_has_child_on_port
                0x00000000178157b0       0x14 common/built-in.o
                0x00000000178157b0                usb_device_has_child_on_port
 .text.usb_find_usb2_hub_address_port
                0x00000000178157c4       0x5c common/built-in.o
                0x00000000178157c4                usb_find_usb2_hub_address_port
 .text.usb_set_port_feature
                0x0000000017815820       0x4c common/built-in.o
 .text.usb_clear_port_feature
                0x000000001781586c       0x4c common/built-in.o
 .text.usb_get_hub_descriptor
                0x00000000178158b8       0x4c common/built-in.o
 .text.usb_hub_reset_devices
                0x0000000017815904        0x4 common/built-in.o
                0x0000000017815904                usb_hub_reset_devices
 .text.usb_get_port_status
                0x0000000017815908       0x4c common/built-in.o
                0x0000000017815908                usb_get_port_status
 .text.usb_hub_reset
                0x0000000017815954       0x20 common/built-in.o
                0x0000000017815954                usb_hub_reset
 .text.legacy_hub_port_reset
                0x0000000017815974       0x9c common/built-in.o
                0x0000000017815974                legacy_hub_port_reset
 .text.usb_hub_port_connect_change
                0x0000000017815a10      0x15c common/built-in.o
                0x0000000017815a10                usb_hub_port_connect_change
 .text.usb_hub_configure
                0x0000000017815b6c      0x484 common/built-in.o
 .text.usb_hub_probe
                0x0000000017815ff0       0x58 common/built-in.o
                0x0000000017815ff0                usb_hub_probe
 .text.usb_stor_irq
                0x0000000017816048       0x1c common/built-in.o
 .text.usb_stor_BBB_reset
                0x0000000017816064       0xd0 common/built-in.o
 .text.usb_stor_CB_reset
                0x0000000017816134       0xcc common/built-in.o
 .text.usb_stor_BBB_clear_endpt_stall.isra.2
                0x0000000017816200       0x40 common/built-in.o
 .text.usb_stor_BBB_transport
                0x0000000017816240      0x258 common/built-in.o
 .text.usb_stor_CB_comdat
                0x0000000017816498      0x1f0 common/built-in.o
 .text.usb_stor_CBI_get_status.isra.4
                0x0000000017816688       0xc4 common/built-in.o
 .text.usb_stor_CB_transport
                0x000000001781674c      0x220 common/built-in.o
 .text.usb_request_sense.constprop.9
                0x000000001781696c       0x70 common/built-in.o
 .text.usb_stor_read
                0x00000000178169dc      0x178 common/built-in.o
 .text.usb_stor_write
                0x0000000017816b54      0x178 common/built-in.o
 .text.usb_stor_info
                0x0000000017816ccc       0x74 common/built-in.o
                0x0000000017816ccc                usb_stor_info
 .text.usb_storage_probe
                0x0000000017816d40      0x208 common/built-in.o
                0x0000000017816d40                usb_storage_probe
 .text.usb_stor_get_info
                0x0000000017816f48      0x310 common/built-in.o
                0x0000000017816f48                usb_stor_get_info
 .text.usb_stor_scan
                0x0000000017817258      0x200 common/built-in.o
                0x0000000017817258                usb_stor_scan
 .text.splash_screen_prepare
                0x0000000017817458        0x8 common/built-in.o
                0x0000000017817458                splash_screen_prepare
 .text.splash_get_pos
                0x0000000017817460       0x88 common/built-in.o
                0x0000000017817460                splash_get_pos
 .text.env_get_char_spec
                0x00000000178174e8        0xc common/built-in.o
                0x00000000178174e8                env_get_char_spec
 .text.env_get_addr
                0x00000000178174f4       0x20 common/built-in.o
                0x00000000178174f4                env_get_addr
 .text.env_get_char_memory
                0x0000000017817514       0x10 common/built-in.o
                0x0000000017817514                env_get_char_memory
 .text.env_get_char
                0x0000000017817524       0x30 common/built-in.o
                0x0000000017817524                env_get_char
 .text.getenv_yesno
                0x0000000017817554       0x48 common/built-in.o
                0x0000000017817554                getenv_yesno
 .text.getenv_default
                0x000000001781759c       0x30 common/built-in.o
                0x000000001781759c                getenv_default
 .text.set_default_env
                0x00000000178175cc       0xc0 common/built-in.o
                0x00000000178175cc                set_default_env
 .text.set_default_vars
                0x000000001781768c       0x3c common/built-in.o
                0x000000001781768c                set_default_vars
 .text.env_import
                0x00000000178176c8       0xe0 common/built-in.o
                0x00000000178176c8                env_import
 .text.env_export
                0x00000000178177a8       0xa0 common/built-in.o
                0x00000000178177a8                env_export
 .text.env_relocate
                0x0000000017817848       0x30 common/built-in.o
                0x0000000017817848                env_relocate
 .text.env_complete
                0x0000000017817878       0xdc common/built-in.o
                0x0000000017817878                env_complete
 .text.console_setfile
                0x0000000017817954       0xbc common/built-in.o
 .text.serial_printf
                0x0000000017817a10       0x44 common/built-in.o
                0x0000000017817a10                serial_printf
 .text.puts     0x0000000017817a54       0x40 common/built-in.o
                0x0000000017817a54                puts
 .text.fgetc    0x0000000017817a94       0x2c common/built-in.o
                0x0000000017817a94                fgetc
 .text.getc     0x0000000017817ac0       0x24 common/built-in.o
                0x0000000017817ac0                getc
 .text.ftstc    0x0000000017817ae4       0x2c common/built-in.o
                0x0000000017817ae4                ftstc
 .text.tstc     0x0000000017817b10       0x24 common/built-in.o
                0x0000000017817b10                tstc
 .text.fputc    0x0000000017817b34       0x24 common/built-in.o
                0x0000000017817b34                fputc
 .text.putc     0x0000000017817b58       0x28 common/built-in.o
                0x0000000017817b58                putc
 .text.ctrlc    0x0000000017817b80       0x58 common/built-in.o
                0x0000000017817b80                ctrlc
 .text.confirm_yesno
                0x0000000017817bd8       0xd4 common/built-in.o
                0x0000000017817bd8                confirm_yesno
 .text.had_ctrlc
                0x0000000017817cac       0x10 common/built-in.o
                0x0000000017817cac                had_ctrlc
 .text.clear_ctrlc
                0x0000000017817cbc       0x14 common/built-in.o
                0x0000000017817cbc                clear_ctrlc
 .text.search_device
                0x0000000017817cd0       0x30 common/built-in.o
                0x0000000017817cd0                search_device
 .text.console_assign
                0x0000000017817d00       0x44 common/built-in.o
                0x0000000017817d00                console_assign
 .text.on_console
                0x0000000017817d44       0xb8 common/built-in.o
 .text.console_init_f
                0x0000000017817dfc       0x10 common/built-in.o
                0x0000000017817dfc                console_init_f
 .text.stdio_print_current_devices
                0x0000000017817e0c       0xb0 common/built-in.o
                0x0000000017817e0c                stdio_print_current_devices
 .text.console_init_r
                0x0000000017817ebc      0x168 common/built-in.o
                0x0000000017817ebc                console_init_r
 .text.sbrk     0x0000000017818024       0x70 common/built-in.o
                0x0000000017818024                sbrk
 .text.mem_malloc_init
                0x0000000017818094       0x34 common/built-in.o
                0x0000000017818094                mem_malloc_init
 .text.malloc_trim
                0x00000000178180c8       0xcc common/built-in.o
                0x00000000178180c8                malloc_trim
 .text.free     0x0000000017818194      0x230 common/built-in.o
                0x0000000017818194                free
 .text.malloc   0x00000000178183c4      0x5f8 common/built-in.o
                0x00000000178183c4                malloc
 .text.calloc   0x00000000178189bc      0x130 common/built-in.o
                0x00000000178189bc                calloc
 .text.realloc  0x0000000017818aec      0x4d0 common/built-in.o
                0x0000000017818aec                realloc
 .text.memalign
                0x0000000017818fbc      0x170 common/built-in.o
                0x0000000017818fbc                memalign
 .text.initf_malloc
                0x000000001781912c       0x18 common/built-in.o
                0x000000001781912c                initf_malloc
 .text.malloc_simple
                0x0000000017819144       0x30 common/built-in.o
                0x0000000017819144                malloc_simple
 .text.on_loadaddr
                0x0000000017819174       0x38 common/built-in.o
 .text.image_check_hcrc
                0x00000000178191ac       0x4c common/built-in.o
                0x00000000178191ac                image_check_hcrc
 .text.image_check_dcrc
                0x00000000178191f8       0x38 common/built-in.o
                0x00000000178191f8                image_check_dcrc
 .text.image_multi_count
                0x0000000017819230       0x1c common/built-in.o
                0x0000000017819230                image_multi_count
 .text.image_multi_getimg
                0x000000001781924c       0x7c common/built-in.o
                0x000000001781924c                image_multi_getimg
 .text.getenv_bootm_low
                0x00000000178192c8       0x30 common/built-in.o
                0x00000000178192c8                getenv_bootm_low
 .text.getenv_bootm_size
                0x00000000178192f8       0x68 common/built-in.o
                0x00000000178192f8                getenv_bootm_size
 .text.getenv_bootm_mapsize
                0x0000000017819360       0x30 common/built-in.o
                0x0000000017819360                getenv_bootm_mapsize
 .text.memmove_wd
                0x0000000017819390        0xc common/built-in.o
                0x0000000017819390                memmove_wd
 .text.genimg_print_size
                0x000000001781939c       0x30 common/built-in.o
                0x000000001781939c                genimg_print_size
 .text.get_table_entry
                0x00000000178193cc       0x24 common/built-in.o
                0x00000000178193cc                get_table_entry
 .text.get_table_entry_name
                0x00000000178193f0       0x20 common/built-in.o
                0x00000000178193f0                get_table_entry_name
 .text.genimg_get_os_name
                0x0000000017819410       0x18 common/built-in.o
                0x0000000017819410                genimg_get_os_name
 .text.genimg_get_arch_name
                0x0000000017819428       0x18 common/built-in.o
                0x0000000017819428                genimg_get_arch_name
 .text.genimg_get_type_name
                0x0000000017819440       0x18 common/built-in.o
                0x0000000017819440                genimg_get_type_name
 .text.genimg_get_comp_name
                0x0000000017819458       0x18 common/built-in.o
                0x0000000017819458                genimg_get_comp_name
 .text.image_print_contents
                0x0000000017819470      0x16c common/built-in.o
                0x0000000017819470                image_print_contents
 .text.genimg_get_kernel_addr_fit
                0x00000000178195dc       0x24 common/built-in.o
                0x00000000178195dc                genimg_get_kernel_addr_fit
 .text.genimg_get_format
                0x0000000017819600       0x54 common/built-in.o
                0x0000000017819600                genimg_get_format
 .text.genimg_get_image
                0x0000000017819654        0x4 common/built-in.o
                0x0000000017819654                genimg_get_image
 .text.genimg_has_config
                0x0000000017819658        0x8 common/built-in.o
                0x0000000017819658                genimg_has_config
 .text.boot_get_ramdisk
                0x0000000017819660      0x2b0 common/built-in.o
                0x0000000017819660                boot_get_ramdisk
 .text.boot_ramdisk_high
                0x0000000017819910      0x138 common/built-in.o
                0x0000000017819910                boot_ramdisk_high
 .text.boot_get_setup
                0x0000000017819a48        0x8 common/built-in.o
                0x0000000017819a48                boot_get_setup
 .text.image_setup_linux
                0x0000000017819a50       0x8c common/built-in.o
                0x0000000017819a50                image_setup_linux
 .text.android_image_get_kernel
                0x0000000017819adc      0x164 common/built-in.o
                0x0000000017819adc                android_image_get_kernel
 .text.android_image_check_header
                0x0000000017819c40       0x14 common/built-in.o
                0x0000000017819c40                android_image_check_header
 .text.android_image_get_end
                0x0000000017819c54       0x4c common/built-in.o
                0x0000000017819c54                android_image_get_end
 .text.android_image_get_kload
                0x0000000017819ca0       0x20 common/built-in.o
                0x0000000017819ca0                android_image_get_kload
 .text.android_image_get_ramdisk
                0x0000000017819cc0       0x7c common/built-in.o
                0x0000000017819cc0                android_image_get_ramdisk
 .text.fdt_error
                0x0000000017819d3c       0x2c common/built-in.o
 .text.boot_fdt_add_mem_rsv_regions
                0x0000000017819d68       0x88 common/built-in.o
                0x0000000017819d68                boot_fdt_add_mem_rsv_regions
 .text.boot_relocate_fdt
                0x0000000017819df0      0x194 common/built-in.o
                0x0000000017819df0                boot_relocate_fdt
 .text.boot_get_fdt
                0x0000000017819f84      0x2b0 common/built-in.o
                0x0000000017819f84                boot_get_fdt
 .text.ft_verify_fdt
                0x000000001781a234        0x8 common/built-in.o
                0x000000001781a234                ft_verify_fdt
 .text.image_setup_libfdt
                0x000000001781a23c      0x110 common/built-in.o
                0x000000001781a23c                image_setup_libfdt
 .text.get_effective_memsize
                0x000000001781a34c        0x8 common/built-in.o
                0x000000001781a34c                get_effective_memsize
 .text.nulldev_putc
                0x000000001781a354        0x4 common/built-in.o
 .text.nulldev_puts
                0x000000001781a358        0x4 common/built-in.o
 .text.nulldev_input
                0x000000001781a35c        0x8 common/built-in.o
 .text.stdio_serial_tstc
                0x000000001781a364        0x4 common/built-in.o
 .text.stdio_serial_getc
                0x000000001781a368        0x4 common/built-in.o
 .text.stdio_serial_puts
                0x000000001781a36c        0x8 common/built-in.o
 .text.stdio_serial_putc
                0x000000001781a374        0x8 common/built-in.o
 .text.stdio_get_list
                0x000000001781a37c        0xc common/built-in.o
                0x000000001781a37c                stdio_get_list
 .text.stdio_get_by_name
                0x000000001781a388       0x4c common/built-in.o
                0x000000001781a388                stdio_get_by_name
 .text.stdio_clone
                0x000000001781a3d4       0x40 common/built-in.o
                0x000000001781a3d4                stdio_clone
 .text.stdio_register_dev
                0x000000001781a414       0x50 common/built-in.o
                0x000000001781a414                stdio_register_dev
 .text.stdio_register
                0x000000001781a464        0x8 common/built-in.o
                0x000000001781a464                stdio_register
 .text.stdio_init_tables
                0x000000001781a46c       0x1c common/built-in.o
                0x000000001781a46c                stdio_init_tables
 .text.stdio_add_devices
                0x000000001781a488       0xd8 common/built-in.o
                0x000000001781a488                stdio_add_devices
 .text.run_command
                0x000000001781a560       0x10 common/built-in.o
                0x000000001781a560                run_command
 .text.run_command_list
                0x000000001781a570       0x7c common/built-in.o
                0x000000001781a570                run_command_list
 .text.do_run   0x000000001781a5ec       0x78 common/built-in.o
                0x000000001781a5ec                do_run
 .text.cli_loop
                0x000000001781a664        0xc common/built-in.o
                0x000000001781a664                cli_loop
 .text.cli_init
                0x000000001781a670        0x4 common/built-in.o
                0x000000001781a670                cli_init
 .text.delete_char.part.0
                0x000000001781a674       0xd0 common/built-in.o
 .text.cread_add_char
                0x000000001781a744       0xe8 common/built-in.o
 .text.cli_readline_into_buffer
                0x000000001781a82c      0x9c0 common/built-in.o
                0x000000001781a82c                cli_readline_into_buffer
 .text.cli_readline
                0x000000001781b1ec       0x14 common/built-in.o
                0x000000001781b1ec                cli_readline
 .text.find_cmd_tbl
                0x000000001781b200       0xa4 common/built-in.o
                0x000000001781b200                find_cmd_tbl
 .text.find_cmd
                0x000000001781b2a4       0x28 common/built-in.o
                0x000000001781b2a4                find_cmd
 .text.cmd_usage
                0x000000001781b2cc       0x5c common/built-in.o
                0x000000001781b2cc                cmd_usage
 .text._do_help
                0x000000001781b328      0x184 common/built-in.o
                0x000000001781b328                _do_help
 .text.var_complete
                0x000000001781b4ac       0x80 common/built-in.o
                0x000000001781b4ac                var_complete
 .text.cmd_auto_complete
                0x000000001781b52c      0x4b8 common/built-in.o
                0x000000001781b52c                cmd_auto_complete
 .text.cmd_get_data_size
                0x000000001781b9e4       0x5c common/built-in.o
                0x000000001781b9e4                cmd_get_data_size
 .text.cmd_process
                0x000000001781ba40       0xe8 common/built-in.o
                0x000000001781ba40                cmd_process
 .text.cmd_process_error
                0x000000001781bb28       0x30 common/built-in.o
                0x000000001781bb28                cmd_process_error
 .text.hex1_bin
                0x000000001781bb58       0x48 common/built-in.o
 .text.hex2_bin
                0x000000001781bba0       0x38 common/built-in.o
 .text.srec_decode
                0x000000001781bbd8      0x254 common/built-in.o
                0x000000001781bbd8                srec_decode
 .text.CYGACC_COMM_IF_GETC_TIMEOUT.isra.0
                0x000000001781be2c       0x4c common/built-in.o
 .text.xyzModem_flush
                0x000000001781be78       0x1c common/built-in.o
 .text.xyzModem_get_hdr
                0x000000001781be94      0x234 common/built-in.o
 .text.xyzModem_stream_open
                0x000000001781c0c8      0x258 common/built-in.o
                0x000000001781c0c8                xyzModem_stream_open
 .text.xyzModem_stream_read
                0x000000001781c320      0x24c common/built-in.o
                0x000000001781c320                xyzModem_stream_read
 .text.xyzModem_stream_close
                0x000000001781c56c       0x54 common/built-in.o
                0x000000001781c56c                xyzModem_stream_close
 .text.xyzModem_stream_terminate
                0x000000001781c5c0       0x94 common/built-in.o
                0x000000001781c5c0                xyzModem_stream_terminate
 .text.xyzModem_error
                0x000000001781c654       0x20 common/built-in.o
                0x000000001781c654                xyzModem_error
 .text.blk_get_dev
                0x000000001781c674       0x30 disk/built-in.o
                0x000000001781c674                blk_get_dev
 .text.dev_print
                0x000000001781c6a4      0x218 disk/built-in.o
                0x000000001781c6a4                dev_print
 .text.part_init
                0x000000001781c8bc       0x60 disk/built-in.o
                0x000000001781c8bc                part_init
 .text.part_print
                0x000000001781c91c      0x138 disk/built-in.o
                0x000000001781c91c                part_print
 .text.part_get_info
                0x000000001781ca54       0x70 disk/built-in.o
                0x000000001781ca54                part_get_info
 .text.blk_get_device_by_str
                0x000000001781cac4      0x154 disk/built-in.o
                0x000000001781cac4                blk_get_device_by_str
 .text.blk_get_device_part_str
                0x000000001781cc18      0x3f0 disk/built-in.o
                0x000000001781cc18                blk_get_device_part_str
 .text.test_block_type
                0x000000001781d008       0x7c disk/built-in.o
 .text.print_partition_extended
                0x000000001781d084      0x258 disk/built-in.o
 .text.part_print_dos
                0x000000001781d2dc       0x34 disk/built-in.o
                0x000000001781d2dc                part_print_dos
 .text.part_test_dos
                0x000000001781d310       0x5c disk/built-in.o
 .text.part_get_info_extended.constprop.4
                0x000000001781d36c      0x2e4 disk/built-in.o
 .text.part_get_info_dos
                0x000000001781d650       0x20 disk/built-in.o
                0x000000001781d650                part_get_info_dos
 .text.alloc_priv
                0x000000001781d670       0x4c drivers/built-in.o
 .text.device_bind
                0x000000001781d6bc      0x30c drivers/built-in.o
                0x000000001781d6bc                device_bind
 .text.device_bind_by_name
                0x000000001781d9c8       0x64 drivers/built-in.o
                0x000000001781d9c8                device_bind_by_name
 .text.device_probe
                0x000000001781da2c      0x22c drivers/built-in.o
                0x000000001781da2c                device_probe
 .text.dev_get_platdata
                0x000000001781dc58       0x30 drivers/built-in.o
                0x000000001781dc58                dev_get_platdata
 .text.dev_get_priv
                0x000000001781dc88       0x30 drivers/built-in.o
                0x000000001781dc88                dev_get_priv
 .text.lists_driver_lookup_name
                0x000000001781dcb8       0x58 drivers/built-in.o
                0x000000001781dcb8                lists_driver_lookup_name
 .text.lists_uclass_lookup
                0x000000001781dd10       0x48 drivers/built-in.o
                0x000000001781dd10                lists_uclass_lookup
 .text.lists_bind_drivers
                0x000000001781dd58       0x94 drivers/built-in.o
                0x000000001781dd58                lists_bind_drivers
 .text.dm_root  0x000000001781ddec       0x28 drivers/built-in.o
                0x000000001781ddec                dm_root
 .text.dm_init  0x000000001781de14       0x58 drivers/built-in.o
                0x000000001781de14                dm_init
 .text.dm_scan_platdata
                0x000000001781de6c       0x2c drivers/built-in.o
                0x000000001781de6c                dm_scan_platdata
 .text.dm_scan_other
                0x000000001781de98        0x8 drivers/built-in.o
                0x000000001781de98                dm_scan_other
 .text.dm_init_and_scan
                0x000000001781dea0       0x30 drivers/built-in.o
                0x000000001781dea0                dm_init_and_scan
 .text.uclass_find
                0x000000001781ded0       0x4c drivers/built-in.o
                0x000000001781ded0                uclass_find
 .text.uclass_get
                0x000000001781df1c      0x124 drivers/built-in.o
                0x000000001781df1c                uclass_get
 .text.uclass_find_device
                0x000000001781e040       0x74 drivers/built-in.o
                0x000000001781e040                uclass_find_device
 .text.uclass_find_device_by_seq
                0x000000001781e0b4       0x7c drivers/built-in.o
                0x000000001781e0b4                uclass_find_device_by_seq
 .text.uclass_get_device_tail
                0x000000001781e130       0x2c drivers/built-in.o
                0x000000001781e130                uclass_get_device_tail
 .text.uclass_get_device
                0x000000001781e15c       0x30 drivers/built-in.o
                0x000000001781e15c                uclass_get_device
 .text.uclass_bind_device
                0x000000001781e18c       0x7c drivers/built-in.o
                0x000000001781e18c                uclass_bind_device
 .text.uclass_unbind_device
                0x000000001781e208       0x4c drivers/built-in.o
                0x000000001781e208                uclass_unbind_device
 .text.uclass_resolve_seq
                0x000000001781e254       0xb0 drivers/built-in.o
                0x000000001781e254                uclass_resolve_seq
 .text.uclass_pre_probe_device
                0x000000001781e304       0x64 drivers/built-in.o
                0x000000001781e304                uclass_pre_probe_device
 .text.uclass_post_probe_device
                0x000000001781e368       0x28 drivers/built-in.o
                0x000000001781e368                uclass_post_probe_device
 .text.uclass_pre_remove_device
                0x000000001781e390       0x28 drivers/built-in.o
                0x000000001781e390                uclass_pre_remove_device
 .text.dm_warn  0x000000001781e3b8       0x28 drivers/built-in.o
                0x000000001781e3b8                dm_warn
 .text.device_free
                0x000000001781e3e0       0x90 drivers/built-in.o
                0x000000001781e3e0                device_free
 .text.device_remove
                0x000000001781e470      0x138 drivers/built-in.o
                0x000000001781e470                device_remove
 .text.show_devices
                0x000000001781e5a8       0xfc drivers/built-in.o
 .text.dm_dump_all
                0x000000001781e6a4       0x3c drivers/built-in.o
                0x000000001781e6a4                dm_dump_all
 .text.dm_dump_uclass
                0x000000001781e6e0       0xdc drivers/built-in.o
                0x000000001781e6e0                dm_dump_uclass
 .text.get_desc
                0x000000001781e7bc       0x68 drivers/built-in.o
 .text.blk_driver_lookup_type
                0x000000001781e824       0x48 drivers/built-in.o
                0x000000001781e824                blk_driver_lookup_type
 .text.blk_get_devnum_by_type
                0x000000001781e86c       0x3c drivers/built-in.o
                0x000000001781e86c                blk_get_devnum_by_type
 .text.blk_dselect_hwpart
                0x000000001781e8a8       0x48 drivers/built-in.o
                0x000000001781e8a8                blk_dselect_hwpart
 .text.blk_get_devnum_by_typename
                0x000000001781e8f0       0x7c drivers/built-in.o
                0x000000001781e8f0                blk_get_devnum_by_typename
 .text.blk_select_hwpart_devnum
                0x000000001781e96c       0x4c drivers/built-in.o
                0x000000001781e96c                blk_select_hwpart_devnum
 .text.finish_access
                0x000000001781e9b8       0x2c drivers/built-in.o
 .text.set_timing
                0x000000001781e9e4       0xa8 drivers/built-in.o
 .text.prepare_access
                0x000000001781ea8c       0x78 drivers/built-in.o
 .text.fuse_bank_physical
                0x000000001781eb04       0x64 drivers/built-in.o
                0x000000001781eb04                fuse_bank_physical
 .text.fuse_read
                0x000000001781eb68       0x70 drivers/built-in.o
                0x000000001781eb68                fuse_read
 .text.fuse_sense
                0x000000001781ebd8       0xac drivers/built-in.o
                0x000000001781ebd8                fuse_sense
 .text.fuse_prog
                0x000000001781ec84       0xa8 drivers/built-in.o
                0x000000001781ec84                fuse_prog
 .text.fuse_override
                0x000000001781ed2c       0x68 drivers/built-in.o
                0x000000001781ed2c                fuse_override
 .text.dfu_write_buffer_drain
                0x000000001781ed94       0xa8 drivers/built-in.o
 .text.dfu_free_buf
                0x000000001781ee3c       0x20 drivers/built-in.o
                0x000000001781ee3c                dfu_free_buf
 .text.dfu_get_buf_size
                0x000000001781ee5c       0x10 drivers/built-in.o
                0x000000001781ee5c                dfu_get_buf_size
 .text.dfu_get_buf
                0x000000001781ee6c       0xbc drivers/built-in.o
                0x000000001781ee6c                dfu_get_buf
 .text.dfu_write_transaction_cleanup
                0x000000001781ef28       0x40 drivers/built-in.o
                0x000000001781ef28                dfu_write_transaction_cleanup
 .text.dfu_flush
                0x000000001781ef68       0x64 drivers/built-in.o
                0x000000001781ef68                dfu_flush
 .text.dfu_write
                0x000000001781efcc      0x190 drivers/built-in.o
                0x000000001781efcc                dfu_write
 .text.dfu_read
                0x000000001781f15c      0x270 drivers/built-in.o
                0x000000001781f15c                dfu_read
 .text.dfu_free_entities
                0x000000001781f3cc       0x9c drivers/built-in.o
                0x000000001781f3cc                dfu_free_entities
 .text.dfu_config_entities
                0x000000001781f468      0x280 drivers/built-in.o
                0x000000001781f468                dfu_config_entities
 .text.dfu_init_env_entities
                0x000000001781f6e8       0x90 drivers/built-in.o
                0x000000001781f6e8                dfu_init_env_entities
 .text.dfu_get_dev_type
                0x000000001781f778       0x3c drivers/built-in.o
                0x000000001781f778                dfu_get_dev_type
 .text.dfu_get_layout
                0x000000001781f7b4       0x3c drivers/built-in.o
                0x000000001781f7b4                dfu_get_layout
 .text.dfu_show_entities
                0x000000001781f7f0       0x74 drivers/built-in.o
                0x000000001781f7f0                dfu_show_entities
 .text.dfu_get_alt_number
                0x000000001781f864       0x10 drivers/built-in.o
                0x000000001781f864                dfu_get_alt_number
 .text.dfu_get_entity
                0x000000001781f874       0x40 drivers/built-in.o
                0x000000001781f874                dfu_get_entity
 .text.mmc_block_op
                0x000000001781f8b4      0x1ec drivers/built-in.o
 .text.mmc_file_op
                0x000000001781faa0      0x1a0 drivers/built-in.o
 .text.dfu_free_entity_mmc
                0x000000001781fc40       0x28 drivers/built-in.o
                0x000000001781fc40                dfu_free_entity_mmc
 .text.dfu_write_medium_mmc
                0x000000001781fc68       0xb8 drivers/built-in.o
                0x000000001781fc68                dfu_write_medium_mmc
 .text.dfu_flush_medium_mmc
                0x000000001781fd20       0x48 drivers/built-in.o
                0x000000001781fd20                dfu_flush_medium_mmc
 .text.dfu_get_medium_size_mmc
                0x000000001781fd68       0x94 drivers/built-in.o
                0x000000001781fd68                dfu_get_medium_size_mmc
 .text.dfu_read_medium_mmc
                0x000000001781fdfc       0xec drivers/built-in.o
                0x000000001781fdfc                dfu_read_medium_mmc
 .text.dfu_fill_entity_mmc
                0x000000001781fee8      0x320 drivers/built-in.o
                0x000000001781fee8                dfu_fill_entity_mmc
 .text.dfu_get_medium_size_sf
                0x0000000017820208        0x8 drivers/built-in.o
 .text.dfu_read_medium_sf
                0x0000000017820210       0x24 drivers/built-in.o
 .text.dfu_flush_medium_sf
                0x0000000017820234        0x8 drivers/built-in.o
 .text.dfu_polltimeout_sf
                0x000000001782023c        0x8 drivers/built-in.o
 .text.dfu_free_entity_sf
                0x0000000017820244        0x8 drivers/built-in.o
 .text.dfu_write_medium_sf
                0x000000001782024c       0x9c drivers/built-in.o
 .text.dfu_fill_entity_sf
                0x00000000178202e8      0x2e8 drivers/built-in.o
                0x00000000178202e8                dfu_fill_entity_sf
 .text.video_drawchars
                0x00000000178205d0      0x480 drivers/built-in.o
 .text.draw_bitmap
                0x0000000017820a50       0xe0 drivers/built-in.o
 .text.console_newline.constprop.1
                0x0000000017820b30       0xe0 drivers/built-in.o
 .text.video_putc
                0x0000000017820c10      0x19c drivers/built-in.o
 .text.video_puts
                0x0000000017820dac       0x80 drivers/built-in.o
 .text.board_cfb_skip
                0x0000000017820e2c        0x8 drivers/built-in.o
                0x0000000017820e2c                board_cfb_skip
 .text.video_set_lut
                0x0000000017820e34        0x4 drivers/built-in.o
                0x0000000017820e34                video_set_lut
 .text.display_rle8_bitmap
                0x0000000017820e38      0x370 drivers/built-in.o
 .text.plot_logo_or_black
                0x00000000178211a8      0x264 drivers/built-in.o
 .text.do_clrlogo
                0x000000001782140c       0x48 drivers/built-in.o
 .text.video_display_bitmap
                0x0000000017821454      0xa48 drivers/built-in.o
                0x0000000017821454                video_display_bitmap
 .text.video_clear
                0x0000000017821e9c       0x54 drivers/built-in.o
                0x0000000017821e9c                video_clear
 .text.drv_video_init
                0x0000000017821ef0      0x3e0 drivers/built-in.o
                0x0000000017821ef0                drv_video_init
 .text.mxcfb_map_video_memory
                0x00000000178222d0       0x88 drivers/built-in.o
 .text.ipuv3_fb_shutdown
                0x0000000017822358       0x60 drivers/built-in.o
                0x0000000017822358                ipuv3_fb_shutdown
 .text.video_hw_init
                0x00000000178223b8      0x5c4 drivers/built-in.o
                0x00000000178223b8                video_hw_init
 .text.ipuv3_fb_init
                0x000000001782297c       0x2c drivers/built-in.o
                0x000000001782297c                ipuv3_fb_init
 .text.clk_ipu_enable
                0x00000000178229a8       0x20 drivers/built-in.o
 .text.clk_ipu_disable
                0x00000000178229c8       0x1c drivers/built-in.o
 .text.ipu_pixel_clk_enable
                0x00000000178229e4       0x28 drivers/built-in.o
 .text.ipu_pixel_clk_disable
                0x0000000017822a0c       0x24 drivers/built-in.o
 .text.ipu_pixel_clk_round_rate
                0x0000000017822a30      0x130 drivers/built-in.o
 .text.ipu_pixel_clk_set_rate
                0x0000000017822b60      0x13c drivers/built-in.o
 .text.ipu_pixel_clk_recalc
                0x0000000017822c9c       0x7c drivers/built-in.o
 .text.ipu_pixel_clk_set_parent
                0x0000000017822d18       0x88 drivers/built-in.o
 .text.clk_enable
                0x0000000017822da0       0x2c drivers/built-in.o
                0x0000000017822da0                clk_enable
 .text.clk_disable
                0x0000000017822dcc       0x38 drivers/built-in.o
                0x0000000017822dcc                clk_disable
 .text.clk_get_usecount
                0x0000000017822e04        0xc drivers/built-in.o
                0x0000000017822e04                clk_get_usecount
 .text.clk_get_rate
                0x0000000017822e10        0xc drivers/built-in.o
                0x0000000017822e10                clk_get_rate
 .text.clk_get_parent
                0x0000000017822e1c        0xc drivers/built-in.o
                0x0000000017822e1c                clk_get_parent
 .text.clk_set_rate
                0x0000000017822e28       0x24 drivers/built-in.o
                0x0000000017822e28                clk_set_rate
 .text.clk_round_rate
                0x0000000017822e4c       0x28 drivers/built-in.o
                0x0000000017822e4c                clk_round_rate
 .text.clk_set_parent
                0x0000000017822e74       0x24 drivers/built-in.o
                0x0000000017822e74                clk_set_parent
 .text.ipu_probe
                0x0000000017822e98      0x150 drivers/built-in.o
                0x0000000017822e98                ipu_probe
 .text.ipu_dump_registers
                0x0000000017822fe8        0x4 drivers/built-in.o
                0x0000000017822fe8                ipu_dump_registers
 .text.ipu_init_channel
                0x0000000017822fec      0x1fc drivers/built-in.o
                0x0000000017822fec                ipu_init_channel
 .text.ipu_uninit_channel
                0x00000000178231e8      0x220 drivers/built-in.o
                0x00000000178231e8                ipu_uninit_channel
 .text.ipu_enable_channel
                0x0000000017823408       0xd4 drivers/built-in.o
                0x0000000017823408                ipu_enable_channel
 .text.ipu_clear_buffer_ready
                0x00000000178234dc       0x7c drivers/built-in.o
                0x00000000178234dc                ipu_clear_buffer_ready
 .text.ipu_disable_channel
                0x0000000017823558      0x180 drivers/built-in.o
                0x0000000017823558                ipu_disable_channel
 .text.bytes_per_pixel
                0x00000000178236d8       0xe0 drivers/built-in.o
                0x00000000178236d8                bytes_per_pixel
 .text.ipu_init_channel_buffer
                0x00000000178237b8      0x5b0 drivers/built-in.o
                0x00000000178237b8                ipu_init_channel_buffer
 .text.format_to_colorspace
                0x0000000017823d68       0xbc drivers/built-in.o
                0x0000000017823d68                format_to_colorspace
 .text.ipu_dc_map_config
                0x0000000017823e24       0x70 drivers/built-in.o
 .text.rgb_to_yuv
                0x0000000017823e94       0x74 drivers/built-in.o
 .text.ipu_dc_link_event
                0x0000000017823f08      0x160 drivers/built-in.o
 .text.ipu_dp_csc_setup.isra.0
                0x0000000017824068      0x100 drivers/built-in.o
 .text.ipu_di_sync_config.constprop.3
                0x0000000017824168       0xe8 drivers/built-in.o
 .text.ipu_dmfc_init
                0x0000000017824250      0x15c drivers/built-in.o
                0x0000000017824250                ipu_dmfc_init
 .text.ipu_dmfc_set_wait4eot
                0x00000000178243ac      0x130 drivers/built-in.o
                0x00000000178243ac                ipu_dmfc_set_wait4eot
 .text.ipu_dp_init
                0x00000000178244dc      0x200 drivers/built-in.o
                0x00000000178244dc                ipu_dp_init
 .text.ipu_dp_uninit
                0x00000000178246dc       0x80 drivers/built-in.o
                0x00000000178246dc                ipu_dp_uninit
 .text.ipu_dc_init
                0x000000001782475c      0x2c8 drivers/built-in.o
                0x000000001782475c                ipu_dc_init
 .text.ipu_dc_uninit
                0x0000000017824a24      0x1b4 drivers/built-in.o
                0x0000000017824a24                ipu_dc_uninit
 .text.ipu_dp_dc_enable
                0x0000000017824bd8      0x238 drivers/built-in.o
                0x0000000017824bd8                ipu_dp_dc_enable
 .text.ipu_dp_dc_disable
                0x0000000017824e10      0x344 drivers/built-in.o
                0x0000000017824e10                ipu_dp_dc_disable
 .text.ipu_init_dc_mappings
                0x0000000017825154      0x184 drivers/built-in.o
                0x0000000017825154                ipu_init_dc_mappings
 .text.ipu_init_sync_panel
                0x00000000178252d8      0x798 drivers/built-in.o
                0x00000000178252d8                ipu_init_sync_panel
 .text.ipu_disp_set_global_alpha
                0x0000000017825a70      0x108 drivers/built-in.o
                0x0000000017825a70                ipu_disp_set_global_alpha
 .text.ipu_disp_set_color_key
                0x0000000017825b78      0x1a8 drivers/built-in.o
                0x0000000017825b78                ipu_disp_set_color_key
 .text.reset_cpu
                0x0000000017825d20       0x30 drivers/built-in.o
                0x0000000017825d20                reset_cpu
 .text.thermal_get_temp
                0x0000000017825d50       0x28 drivers/built-in.o
                0x0000000017825d50                thermal_get_temp
 .text.read_cpu_temperature
                0x0000000017825d78       0xec drivers/built-in.o
 .text.imx_thermal_get_temp
                0x0000000017825e64       0x64 drivers/built-in.o
                0x0000000017825e64                imx_thermal_get_temp
 .text.imx_thermal_probe
                0x0000000017825ec8       0xc8 drivers/built-in.o
 .text.gpio_set_value
                0x0000000017825f90       0x44 drivers/gpio/built-in.o
                0x0000000017825f90                gpio_set_value
 .text.gpio_get_value
                0x0000000017825fd4       0x34 drivers/gpio/built-in.o
                0x0000000017825fd4                gpio_get_value
 .text.gpio_request
                0x0000000017826008       0x10 drivers/gpio/built-in.o
                0x0000000017826008                gpio_request
 .text.gpio_free
                0x0000000017826018        0x8 drivers/gpio/built-in.o
                0x0000000017826018                gpio_free
 .text.gpio_direction_input
                0x0000000017826020       0x3c drivers/gpio/built-in.o
                0x0000000017826020                gpio_direction_input
 .text.gpio_direction_output
                0x000000001782605c       0x50 drivers/gpio/built-in.o
                0x000000001782605c                gpio_direction_output
 .text.i2c_get_adapter
                0x00000000178260ac       0x64 drivers/i2c/built-in.o
                0x00000000178260ac                i2c_get_adapter
 .text.i2c_init_bus
                0x0000000017826110       0x90 drivers/i2c/built-in.o
 .text.i2c_get_bus_num
                0x00000000178261a0        0x8 drivers/i2c/built-in.o
                0x00000000178261a0                i2c_get_bus_num
 .text.i2c_set_bus_num
                0x00000000178261a8       0xbc drivers/i2c/built-in.o
                0x00000000178261a8                i2c_set_bus_num
 .text.i2c_init_all
                0x0000000017826264       0x14 drivers/i2c/built-in.o
                0x0000000017826264                i2c_init_all
 .text.i2c_probe
                0x0000000017826278       0x28 drivers/i2c/built-in.o
                0x0000000017826278                i2c_probe
 .text.i2c_read
                0x00000000178262a0       0x4c drivers/i2c/built-in.o
                0x00000000178262a0                i2c_read
 .text.i2c_write
                0x00000000178262ec       0x4c drivers/i2c/built-in.o
                0x00000000178262ec                i2c_write
 .text.i2c_set_bus_speed
                0x0000000017826338       0x64 drivers/i2c/built-in.o
                0x0000000017826338                i2c_set_bus_speed
 .text.i2c_get_bus_speed
                0x000000001782639c       0x14 drivers/i2c/built-in.o
                0x000000001782639c                i2c_get_bus_speed
 .text.i2c_init
                0x00000000178263b0       0x14 drivers/i2c/built-in.o
                0x00000000178263b0                i2c_init
 .text.wait_for_sr_state
                0x00000000178263c4       0xfc drivers/i2c/built-in.o
 .text.tx_byte  0x00000000178264c0       0x50 drivers/i2c/built-in.o
 .text.bus_i2c_set_bus_speed
                0x0000000017826510       0xbc drivers/i2c/built-in.o
 .text.mxc_i2c_set_bus_speed
                0x00000000178265cc       0x18 drivers/i2c/built-in.o
 .text.i2c_imx_stop
                0x00000000178265e4       0x50 drivers/i2c/built-in.o
 .text.__i2c_force_reset_slave
                0x0000000017826634        0x4 drivers/i2c/built-in.o
                0x0000000017826634                __i2c_force_reset_slave
                0x0000000017826634                i2c_force_reset_slave
 .text.i2c_idle_bus
                0x0000000017826638       0x2c drivers/i2c/built-in.o
                0x0000000017826638                i2c_idle_bus
 .text.i2c_init_transfer
                0x0000000017826664      0x208 drivers/i2c/built-in.o
 .text.mxc_i2c_probe
                0x000000001782686c       0x40 drivers/i2c/built-in.o
 .text.mxc_i2c_read
                0x00000000178268ac      0x19c drivers/i2c/built-in.o
 .text.mxc_i2c_write
                0x0000000017826a48       0x68 drivers/i2c/built-in.o
 .text.bus_i2c_init
                0x0000000017826ab0       0x70 drivers/i2c/built-in.o
                0x0000000017826ab0                bus_i2c_init
 .text.mxc_i2c_init
                0x0000000017826b20       0x1c drivers/i2c/built-in.o
 .text.find_mmc_device
                0x0000000017826b3c       0x4c drivers/mmc/built-in.o
                0x0000000017826b3c                find_mmc_device
 .text.mmc_get_next_devnum
                0x0000000017826b88       0x18 drivers/mmc/built-in.o
                0x0000000017826b88                mmc_get_next_devnum
 .text.mmc_get_blk_desc
                0x0000000017826ba0        0x8 drivers/mmc/built-in.o
                0x0000000017826ba0                mmc_get_blk_desc
 .text.get_mmc_num
                0x0000000017826ba8       0x10 drivers/mmc/built-in.o
                0x0000000017826ba8                get_mmc_num
 .text.mmc_do_preinit
                0x0000000017826bb8       0x3c drivers/mmc/built-in.o
                0x0000000017826bb8                mmc_do_preinit
 .text.mmc_list_init
                0x0000000017826bf4       0x24 drivers/mmc/built-in.o
                0x0000000017826bf4                mmc_list_init
 .text.mmc_list_add
                0x0000000017826c18       0x24 drivers/mmc/built-in.o
                0x0000000017826c18                mmc_list_add
 .text.print_mmc_devices
                0x0000000017826c3c       0xc0 drivers/mmc/built-in.o
                0x0000000017826c3c                print_mmc_devices
 .text.esdhc_getcd
                0x0000000017826cfc       0x40 drivers/mmc/built-in.o
 .text.esdhc_set_ios
                0x0000000017826d3c      0x124 drivers/mmc/built-in.o
 .text.esdhc_init
                0x0000000017826e60       0x7c drivers/mmc/built-in.o
 .text.check_and_invalidate_dcache_range.isra.0
                0x0000000017826edc       0x30 drivers/mmc/built-in.o
 .text.esdhc_send_cmd
                0x0000000017826f0c      0x3dc drivers/mmc/built-in.o
 .text.fsl_esdhc_initialize
                0x00000000178272e8      0x19c drivers/mmc/built-in.o
                0x00000000178272e8                fsl_esdhc_initialize
 .text.fsl_esdhc_mmc_init
                0x0000000017827484       0x34 drivers/mmc/built-in.o
                0x0000000017827484                fsl_esdhc_mmc_init
 .text.mmc_set_ios
                0x00000000178274b8       0x20 drivers/mmc/built-in.o
 .text.mmc_set_capacity
                0x00000000178274d8       0xb8 drivers/mmc/built-in.o
 .text.board_mmc_getwp
                0x0000000017827590        0x8 drivers/mmc/built-in.o
                0x0000000017827590                board_mmc_getwp
 .text.mmc_getwp
                0x0000000017827598       0x3c drivers/mmc/built-in.o
                0x0000000017827598                mmc_getwp
 .text.mmc_send_cmd
                0x00000000178275d4       0x18 drivers/mmc/built-in.o
                0x00000000178275d4                mmc_send_cmd
 .text.mmc_send_ext_csd
                0x00000000178275ec       0x4c drivers/mmc/built-in.o
 .text.mmc_go_idle
                0x0000000017827638       0x4c drivers/mmc/built-in.o
 .text.mmc_send_op_cond_iter
                0x0000000017827684       0x78 drivers/mmc/built-in.o
 .text.mmc_send_status
                0x00000000178276fc       0xdc drivers/mmc/built-in.o
                0x00000000178276fc                mmc_send_status
 .text.mmc_switch.isra.0
                0x00000000178277d8       0x54 drivers/mmc/built-in.o
 .text.mmc_select_hwpartp
                0x000000001782782c       0x98 drivers/mmc/built-in.o
 .text.mmc_set_blocklen
                0x00000000178278c4       0x3c drivers/mmc/built-in.o
                0x00000000178278c4                mmc_set_blocklen
 .text.mmc_bread
                0x0000000017827900      0x15c drivers/mmc/built-in.o
 .text.mmc_hwpart_config
                0x0000000017827a5c      0x434 drivers/mmc/built-in.o
                0x0000000017827a5c                mmc_hwpart_config
 .text.mmc_getcd
                0x0000000017827e90       0x3c drivers/mmc/built-in.o
                0x0000000017827e90                mmc_getcd
 .text.mmc_set_clock
                0x0000000017827ecc       0x24 drivers/mmc/built-in.o
                0x0000000017827ecc                mmc_set_clock
 .text.mmc_startup
                0x0000000017827ef0      0xd30 drivers/mmc/built-in.o
 .text.mmc_create
                0x0000000017828c20       0xe4 drivers/mmc/built-in.o
                0x0000000017828c20                mmc_create
 .text.board_mmc_power_init
                0x0000000017828d04        0x4 drivers/mmc/built-in.o
                0x0000000017828d04                board_mmc_power_init
 .text.mmc_start_init
                0x0000000017828d08      0x268 drivers/mmc/built-in.o
                0x0000000017828d08                mmc_start_init
 .text.mmc_init
                0x0000000017828f70       0xf0 drivers/mmc/built-in.o
                0x0000000017828f70                mmc_init
 .text.mmc_get_dev
                0x0000000017829060       0x30 drivers/mmc/built-in.o
 .text.mmc_set_dsr
                0x0000000017829090        0xc drivers/mmc/built-in.o
                0x0000000017829090                mmc_set_dsr
 .text.mmc_initialize
                0x000000001782909c       0x54 drivers/mmc/built-in.o
                0x000000001782909c                mmc_initialize
 .text.mmc_boot_partition_size_change
                0x00000000178290f0       0xcc drivers/mmc/built-in.o
                0x00000000178290f0                mmc_boot_partition_size_change
 .text.mmc_set_boot_bus_width
                0x00000000178291bc       0x14 drivers/mmc/built-in.o
                0x00000000178291bc                mmc_set_boot_bus_width
 .text.mmc_set_part_conf
                0x00000000178291d0       0x14 drivers/mmc/built-in.o
                0x00000000178291d0                mmc_set_part_conf
 .text.mmc_set_rst_n_function
                0x00000000178291e4        0xc drivers/mmc/built-in.o
                0x00000000178291e4                mmc_set_rst_n_function
 .text.mmc_berase
                0x00000000178291f0      0x1b0 drivers/mmc/built-in.o
                0x00000000178291f0                mmc_berase
 .text.mmc_bwrite
                0x00000000178293a0      0x1a0 drivers/mmc/built-in.o
                0x00000000178293a0                mmc_bwrite
 .text.mtd_arg_off
                0x0000000017829540       0x68 drivers/mtd/built-in.o
                0x0000000017829540                mtd_arg_off
 .text.mtd_arg_off_size
                0x00000000178295a8      0x11c drivers/mtd/built-in.o
                0x00000000178295a8                mtd_arg_off_size
 .text.spi_flash_probe
                0x00000000178296c4       0x74 drivers/mtd/spi/built-in.o
                0x00000000178296c4                spi_flash_probe
 .text.spi_flash_free
                0x0000000017829738       0x1c drivers/mtd/spi/built-in.o
                0x0000000017829738                spi_flash_free
 .text.stm_is_locked_sr
                0x0000000017829754       0x7c drivers/mtd/spi/built-in.o
 .text.spi_flash_read_common
                0x00000000178297d0       0x5c drivers/mtd/spi/built-in.o
                0x00000000178297d0                spi_flash_read_common
 .text.read_sr  0x000000001782982c       0x2c drivers/mtd/spi/built-in.o
 .text.stm_is_locked
                0x0000000017829858       0x4c drivers/mtd/spi/built-in.o
                0x0000000017829858                stm_is_locked
 .text.spi_flash_write_common
                0x00000000178298a4      0x15c drivers/mtd/spi/built-in.o
                0x00000000178298a4                spi_flash_write_common
 .text.spi_flash_cmd_erase_ops
                0x0000000017829a00       0xe4 drivers/mtd/spi/built-in.o
                0x0000000017829a00                spi_flash_cmd_erase_ops
 .text.spi_flash_cmd_write_ops
                0x0000000017829ae4       0xf0 drivers/mtd/spi/built-in.o
                0x0000000017829ae4                spi_flash_cmd_write_ops
 .text.write_sr
                0x0000000017829bd4       0x2c drivers/mtd/spi/built-in.o
 .text.stm_lock
                0x0000000017829c00      0x170 drivers/mtd/spi/built-in.o
                0x0000000017829c00                stm_lock
 .text.stm_unlock
                0x0000000017829d70      0x1c0 drivers/mtd/spi/built-in.o
                0x0000000017829d70                stm_unlock
 .text.spi_flash_copy_mmap
                0x0000000017829f30        0x4 drivers/mtd/spi/built-in.o
                0x0000000017829f30                spi_flash_copy_mmap
 .text.spi_flash_cmd_read_ops
                0x0000000017829f34      0x148 drivers/mtd/spi/built-in.o
                0x0000000017829f34                spi_flash_cmd_read_ops
 .text.spi_flash_scan
                0x000000001782a07c      0x478 drivers/mtd/spi/built-in.o
                0x000000001782a07c                spi_flash_scan
 .text.spi_flash_read_write
                0x000000001782a4f4       0x74 drivers/mtd/spi/built-in.o
 .text.spi_flash_cmd_read
                0x000000001782a568       0x20 drivers/mtd/spi/built-in.o
                0x000000001782a568                spi_flash_cmd_read
 .text.spi_flash_cmd
                0x000000001782a588       0x2c drivers/mtd/spi/built-in.o
                0x000000001782a588                spi_flash_cmd
 .text.spi_flash_cmd_write
                0x000000001782a5b4       0x20 drivers/mtd/spi/built-in.o
                0x000000001782a5b4                spi_flash_cmd_write
 .text.fec_set_hwaddr
                0x000000001782a5d4       0x78 drivers/net/built-in.o
 .text.fec_reg_setup
                0x000000001782a64c       0x60 drivers/net/built-in.o
 .text.fec_phy_write
                0x000000001782a6ac       0x74 drivers/net/built-in.o
 .text.fec_phy_read
                0x000000001782a720       0x7c drivers/net/built-in.o
 .text.fec_halt
                0x000000001782a79c       0x68 drivers/net/built-in.o
 .text.fec_send
                0x000000001782a804      0x134 drivers/net/built-in.o
 .text.fec_mii_setspeed
                0x000000001782a938       0x5c drivers/net/built-in.o
 .text.fec_init
                0x000000001782a994      0x284 drivers/net/built-in.o
 .text.fec_recv
                0x000000001782ac18      0x208 drivers/net/built-in.o
 .text.fec_probe
                0x000000001782ae20      0x388 drivers/net/built-in.o
                0x000000001782ae20                fec_probe
 .text.fec_get_miibus
                0x000000001782b1a8       0xa4 drivers/net/built-in.o
                0x000000001782b1a8                fec_get_miibus
 .text.fecmxc_initialize_multi
                0x000000001782b24c       0xa0 drivers/net/built-in.o
                0x000000001782b24c                fecmxc_initialize_multi
 .text.fecmxc_initialize
                0x000000001782b2ec       0x14 drivers/net/built-in.o
                0x000000001782b2ec                fecmxc_initialize
 .text.genphy_shutdown
                0x000000001782b300        0x8 drivers/net/phy/built-in.o
                0x000000001782b300                genphy_shutdown
 .text.genphy_restart_aneg
                0x000000001782b308       0x5c drivers/net/phy/built-in.o
                0x000000001782b308                genphy_restart_aneg
 .text.genphy_config_aneg
                0x000000001782b364      0x200 drivers/net/phy/built-in.o
                0x000000001782b364                genphy_config_aneg
 .text.genphy_config
                0x000000001782b564       0xc4 drivers/net/phy/built-in.o
                0x000000001782b564                genphy_config
 .text.genphy_update_link
                0x000000001782b628      0x148 drivers/net/phy/built-in.o
                0x000000001782b628                genphy_update_link
 .text.genphy_parse_link
                0x000000001782b770      0x198 drivers/net/phy/built-in.o
                0x000000001782b770                genphy_parse_link
 .text.genphy_startup
                0x000000001782b908       0x20 drivers/net/phy/built-in.o
                0x000000001782b908                genphy_startup
 .text.phy_init
                0x000000001782b928       0x10 drivers/net/phy/built-in.o
                0x000000001782b928                phy_init
 .text.phy_register
                0x000000001782b938       0x28 drivers/net/phy/built-in.o
                0x000000001782b938                phy_register
 .text.get_phy_id
                0x000000001782b960       0x70 drivers/net/phy/built-in.o
                0x000000001782b960                get_phy_id
 .text.get_phy_device_by_mask
                0x000000001782b9d0      0x298 drivers/net/phy/built-in.o
 .text.phy_reset
                0x000000001782bc68       0xb4 drivers/net/phy/built-in.o
                0x000000001782bc68                phy_reset
 .text.phy_find_by_mask
                0x000000001782bd1c       0x3c drivers/net/phy/built-in.o
                0x000000001782bd1c                phy_find_by_mask
 .text.phy_connect_dev
                0x000000001782bd58       0x4c drivers/net/phy/built-in.o
                0x000000001782bd58                phy_connect_dev
 .text.phy_startup
                0x000000001782bda4       0x24 drivers/net/phy/built-in.o
                0x000000001782bda4                phy_startup
 .text.board_phy_config
                0x000000001782bdc8       0x24 drivers/net/phy/built-in.o
                0x000000001782bdc8                board_phy_config
 .text.phy_config
                0x000000001782bdec        0x4 drivers/net/phy/built-in.o
                0x000000001782bdec                phy_config
 .text.phy_write.constprop.0
                0x000000001782bdf0       0x2c drivers/net/phy/built-in.o
 .text.ar8021_config
                0x000000001782be1c       0x38 drivers/net/phy/built-in.o
 .text.ar8035_config
                0x000000001782be54       0xc0 drivers/net/phy/built-in.o
 .text.phy_atheros_init
                0x000000001782bf14       0x30 drivers/net/phy/built-in.o
                0x000000001782bf14                phy_atheros_init
 .text.pci_hose_read_config_byte
                0x000000001782bf44       0x10 drivers/pci/built-in.o
                0x000000001782bf44                pci_hose_read_config_byte
 .text.pci_hose_read_config_word
                0x000000001782bf54       0x10 drivers/pci/built-in.o
                0x000000001782bf54                pci_hose_read_config_word
 .text.pci_hose_read_config_dword
                0x000000001782bf64       0x10 drivers/pci/built-in.o
                0x000000001782bf64                pci_hose_read_config_dword
 .text.pci_hose_write_config_byte
                0x000000001782bf74       0x10 drivers/pci/built-in.o
                0x000000001782bf74                pci_hose_write_config_byte
 .text.pci_hose_write_config_word
                0x000000001782bf84       0x10 drivers/pci/built-in.o
                0x000000001782bf84                pci_hose_write_config_word
 .text.pci_hose_write_config_dword
                0x000000001782bf94       0x10 drivers/pci/built-in.o
                0x000000001782bf94                pci_hose_write_config_dword
 .text.pci_hose_read_config_byte_via_dword
                0x000000001782bfa4       0x44 drivers/pci/built-in.o
                0x000000001782bfa4                pci_hose_read_config_byte_via_dword
 .text.pci_hose_read_config_word_via_dword
                0x000000001782bfe8       0x44 drivers/pci/built-in.o
                0x000000001782bfe8                pci_hose_read_config_word_via_dword
 .text.pci_hose_write_config_byte_via_dword
                0x000000001782c02c       0x6c drivers/pci/built-in.o
                0x000000001782c02c                pci_hose_write_config_byte_via_dword
 .text.pci_hose_write_config_word_via_dword
                0x000000001782c098       0x6c drivers/pci/built-in.o
                0x000000001782c098                pci_hose_write_config_word_via_dword
 .text.pci_get_hose_head
                0x000000001782c104       0x20 drivers/pci/built-in.o
                0x000000001782c104                pci_get_hose_head
 .text.pci_register_hose
                0x000000001782c124       0x28 drivers/pci/built-in.o
                0x000000001782c124                pci_register_hose
 .text.pci_bus_to_hose
                0x000000001782c14c       0x4c drivers/pci/built-in.o
                0x000000001782c14c                pci_bus_to_hose
 .text.pci_read_config_byte
                0x000000001782c198       0x40 drivers/pci/built-in.o
                0x000000001782c198                pci_read_config_byte
 .text.pci_read_config_word
                0x000000001782c1d8       0x40 drivers/pci/built-in.o
                0x000000001782c1d8                pci_read_config_word
 .text.pci_read_config_dword
                0x000000001782c218       0x40 drivers/pci/built-in.o
                0x000000001782c218                pci_read_config_dword
 .text.pci_write_config_byte
                0x000000001782c258       0x3c drivers/pci/built-in.o
                0x000000001782c258                pci_write_config_byte
 .text.pci_write_config_word
                0x000000001782c294       0x3c drivers/pci/built-in.o
                0x000000001782c294                pci_write_config_word
 .text.pci_write_config_dword
                0x000000001782c2d0       0x3c drivers/pci/built-in.o
                0x000000001782c2d0                pci_write_config_dword
 .text.pci_print_dev
                0x000000001782c30c       0x14 drivers/pci/built-in.o
                0x000000001782c30c                pci_print_dev
 .text.pci_hose_scan_bus
                0x000000001782c320      0x1b4 drivers/pci/built-in.o
                0x000000001782c320                pci_hose_scan_bus
 .text.pci_hose_scan
                0x000000001782c4d4       0x3c drivers/pci/built-in.o
                0x000000001782c4d4                pci_hose_scan
 .text.pci_init
                0x000000001782c510       0x14 drivers/pci/built-in.o
                0x000000001782c510                pci_init
 .text.pciauto_setup_device
                0x000000001782c524      0x2a0 drivers/pci/built-in.o
                0x000000001782c524                pciauto_setup_device
 .text.pciauto_prescan_setup_bridge
                0x000000001782c7c4      0x1fc drivers/pci/built-in.o
                0x000000001782c7c4                pciauto_prescan_setup_bridge
 .text.pciauto_postscan_setup_bridge
                0x000000001782c9c0      0x124 drivers/pci/built-in.o
                0x000000001782c9c0                pciauto_postscan_setup_bridge
 .text.pciauto_config_device
                0x000000001782cae4       0xf8 drivers/pci/built-in.o
                0x000000001782cae4                pciauto_config_device
 .text.pciauto_region_init
                0x000000001782cbdc       0x14 drivers/pci/built-in.o
                0x000000001782cbdc                pciauto_region_init
 .text.pciauto_region_align
                0x000000001782cbf0       0x1c drivers/pci/built-in.o
                0x000000001782cbf0                pciauto_region_align
 .text.pciauto_region_allocate
                0x000000001782cc0c       0x58 drivers/pci/built-in.o
                0x000000001782cc0c                pciauto_region_allocate
 .text.pciauto_config_init
                0x000000001782cc64       0xec drivers/pci/built-in.o
                0x000000001782cc64                pciauto_config_init
 .text.pci_class_str
                0x000000001782cd50      0x168 drivers/pci/built-in.o
                0x000000001782cd50                pci_class_str
 .text.pci_skip_dev
                0x000000001782ceb8       0x14 drivers/pci/built-in.o
                0x000000001782ceb8                pci_skip_dev
 .text.get_bus_address
                0x000000001782cecc       0x5c drivers/pci/built-in.o
 .text.imx_pcie_addr_valid
                0x000000001782cf28       0x38 drivers/pci/built-in.o
 .text.pcie_phy_poll_ack.constprop.9
                0x000000001782cf60       0x44 drivers/pci/built-in.o
 .text.pcie_phy_write.part.3.constprop.7
                0x000000001782cfa4       0x80 drivers/pci/built-in.o
 .text.pcie_phy_wait_ack.constprop.6
                0x000000001782d024       0x3c drivers/pci/built-in.o
 .text.pcie_phy_read.constprop.5
                0x000000001782d060       0x50 drivers/pci/built-in.o
 .text.imx_pcie_read_config
                0x000000001782d0b0       0x80 drivers/pci/built-in.o
 .text.imx_pcie_write_config
                0x000000001782d130       0x6c drivers/pci/built-in.o
 .text.imx6_pcie_toggle_power
                0x000000001782d19c       0x34 drivers/pci/built-in.o
                0x000000001782d19c                imx6_pcie_toggle_power
 .text.imx6_pcie_toggle_reset
                0x000000001782d1d0       0x34 drivers/pci/built-in.o
                0x000000001782d1d0                imx6_pcie_toggle_reset
 .text.imx_pcie_init
                0x000000001782d204      0x330 drivers/pci/built-in.o
                0x000000001782d204                imx_pcie_init
 .text.pci_init_board
                0x000000001782d534        0x4 drivers/pci/built-in.o
                0x000000001782d534                pci_init_board
 .text.check_reg
                0x000000001782d538       0x2c drivers/power/built-in.o
                0x000000001782d538                check_reg
 .text.pmic_alloc
                0x000000001782d564       0x58 drivers/power/built-in.o
                0x000000001782d564                pmic_alloc
 .text.pmic_get
                0x000000001782d5bc       0x58 drivers/power/built-in.o
                0x000000001782d5bc                pmic_get
 .text.power_get_interface
                0x000000001782d614       0x2c drivers/power/built-in.o
                0x000000001782d614                power_get_interface
 .text.do_pmic  0x000000001782d640      0x2e8 drivers/power/built-in.o
                0x000000001782d640                do_pmic
 .text.pmic_reg_write
                0x000000001782d928       0xe0 drivers/power/built-in.o
                0x000000001782d928                pmic_reg_write
 .text.pmic_reg_read
                0x000000001782da08      0x104 drivers/power/built-in.o
                0x000000001782da08                pmic_reg_read
 .text.pmic_probe
                0x000000001782db0c       0x38 drivers/power/built-in.o
                0x000000001782db0c                pmic_probe
 .text.power_pfuze100_init
                0x000000001782db44       0x68 drivers/power/pmic/built-in.o
                0x000000001782db44                power_pfuze100_init
 .text.serial_stub_start
                0x000000001782dbac       0x14 drivers/serial/built-in.o
 .text.serial_stub_stop
                0x000000001782dbc0       0x14 drivers/serial/built-in.o
 .text.serial_stub_putc
                0x000000001782dbd4       0x18 drivers/serial/built-in.o
 .text.serial_stub_puts
                0x000000001782dbec       0x18 drivers/serial/built-in.o
 .text.serial_stub_getc
                0x000000001782dc04       0x14 drivers/serial/built-in.o
                0x000000001782dc04                serial_stub_getc
 .text.serial_stub_tstc
                0x000000001782dc18       0x14 drivers/serial/built-in.o
                0x000000001782dc18                serial_stub_tstc
 .text.get_current
                0x000000001782dc2c       0x40 drivers/serial/built-in.o
 .text.serial_null
                0x000000001782dc6c        0x4 drivers/serial/built-in.o
                0x000000001782dc6c                jz_serial_initialize
                0x000000001782dc6c                bfin_serial_initialize
                0x000000001782dc6c                p3mx_serial_initialize
                0x000000001782dc6c                leon2_serial_initialize
                0x000000001782dc6c                leon3_serial_initialize
                0x000000001782dc6c                stm32_serial_initialize
                0x000000001782dc6c                amirix_serial_initialize
                0x000000001782dc6c                marvell_serial_initialize
                0x000000001782dc6c                cpci750_serial_initialize
                0x000000001782dc6c                ns16550_serial_initialize
                0x000000001782dc6c                asc_serial_initialize
                0x000000001782dc6c                oc_serial_initialize
                0x000000001782dc6c                sh_serial_initialize
                0x000000001782dc6c                mxs_auart_initialize
                0x000000001782dc6c                arm_dcc_initialize
                0x000000001782dc6c                bmw_serial_initialize
                0x000000001782dc6c                arc_serial_initialize
                0x000000001782dc6c                mcf_serial_initialize
                0x000000001782dc6c                lh7a40x_serial_initialize
                0x000000001782dc6c                evb64260_serial_initialize
                0x000000001782dc6c                lpc32xx_serial_initialize
                0x000000001782dc6c                max3100_serial_initialize
                0x000000001782dc6c                mpc85xx_serial_initialize
                0x000000001782dc6c                imx_serial_initialize
                0x000000001782dc6c                bfin_jtag_initialize
                0x000000001782dc6c                cogent_serial_initialize
                0x000000001782dc6c                clps7111_serial_initialize
                0x000000001782dc6c                ml2_serial_initialize
                0x000000001782dc6c                sandbox_serial_initialize
                0x000000001782dc6c                s3c24xx_serial_initialize
                0x000000001782dc6c                sconsole_serial_initialize
                0x000000001782dc6c                uartlite_serial_initialize
                0x000000001782dc6c                au1x00_serial_initialize
                0x000000001782dc6c                pxa_serial_initialize
                0x000000001782dc6c                atmel_serial_initialize
                0x000000001782dc6c                pl01x_serial_initialize
                0x000000001782dc6c                mpc512x_serial_initialize
                0x000000001782dc6c                s5p_serial_initialize
                0x000000001782dc6c                zynq_serial_initialize
                0x000000001782dc6c                sa1100_serial_initialize
                0x000000001782dc6c                mpc8260_scc_serial_initialize
                0x000000001782dc6c                iop480_serial_initialize
                0x000000001782dc6c                mpc8xx_serial_initialize
                0x000000001782dc6c                mpc8260_smc_serial_initialize
                0x000000001782dc6c                mpc5xx_serial_initialize
 .text.serial_register
                0x000000001782dc70       0x18 drivers/serial/built-in.o
                0x000000001782dc70                serial_register
 .text.serial_stdio_init
                0x000000001782dc88       0xa8 drivers/serial/built-in.o
                0x000000001782dc88                serial_stdio_init
 .text.serial_assign
                0x000000001782dd30       0x4c drivers/serial/built-in.o
                0x000000001782dd30                serial_assign
 .text.serial_initialize
                0x000000001782dd7c       0xc8 drivers/serial/built-in.o
                0x000000001782dd7c                serial_initialize
 .text.serial_init
                0x000000001782de44       0x20 drivers/serial/built-in.o
                0x000000001782de44                serial_init
 .text.serial_setbrg
                0x000000001782de64       0x14 drivers/serial/built-in.o
                0x000000001782de64                serial_setbrg
 .text.on_baudrate
                0x000000001782de78       0xec drivers/serial/built-in.o
 .text.serial_getc
                0x000000001782df64       0x14 drivers/serial/built-in.o
                0x000000001782df64                serial_getc
 .text.serial_tstc
                0x000000001782df78       0x14 drivers/serial/built-in.o
                0x000000001782df78                serial_tstc
 .text.serial_putc
                0x000000001782df8c       0x1c drivers/serial/built-in.o
                0x000000001782df8c                serial_putc
 .text.serial_puts
                0x000000001782dfa8       0x1c drivers/serial/built-in.o
                0x000000001782dfa8                serial_puts
 .text.default_serial_puts
                0x000000001782dfc4       0x30 drivers/serial/built-in.o
                0x000000001782dfc4                default_serial_puts
 .text.mxc_serial_getc
                0x000000001782dff4       0x24 drivers/serial/built-in.o
 .text.mxc_serial_tstc
                0x000000001782e018       0x18 drivers/serial/built-in.o
 .text.mxc_serial_putc
                0x000000001782e030       0x34 drivers/serial/built-in.o
 .text.mxc_serial_setbrg
                0x000000001782e064       0x48 drivers/serial/built-in.o
 .text.mxc_serial_init
                0x000000001782e0ac       0x68 drivers/serial/built-in.o
 .text.mxc_serial_initialize
                0x000000001782e114        0xc drivers/serial/built-in.o
                0x000000001782e114                mxc_serial_initialize
 .text.default_serial_console
                0x000000001782e120        0xc drivers/serial/built-in.o
                0x000000001782e120                default_serial_console
 .text.spi_do_alloc_slave
                0x000000001782e12c       0x4c drivers/spi/built-in.o
                0x000000001782e12c                spi_do_alloc_slave
 .text.spi_cs_activate
                0x000000001782e178       0x18 drivers/spi/built-in.o
                0x000000001782e178                spi_cs_activate
 .text.spi_cs_deactivate
                0x000000001782e190       0x20 drivers/spi/built-in.o
                0x000000001782e190                spi_cs_deactivate
 .text.spi_xchg_single
                0x000000001782e1b0      0x1dc drivers/spi/built-in.o
                0x000000001782e1b0                spi_xchg_single
 .text.spi_xfer
                0x000000001782e38c       0xb4 drivers/spi/built-in.o
                0x000000001782e38c                spi_xfer
 .text.spi_setup_slave
                0x000000001782e440       0xd8 drivers/spi/built-in.o
                0x000000001782e440                spi_setup_slave
 .text.spi_free_slave
                0x000000001782e518        0x4 drivers/spi/built-in.o
                0x000000001782e518                spi_free_slave
 .text.spi_claim_bus
                0x000000001782e51c      0x17c drivers/spi/built-in.o
                0x000000001782e51c                spi_claim_bus
 .text.spi_release_bus
                0x000000001782e698        0x4 drivers/spi/built-in.o
                0x000000001782e698                spi_release_bus
 .text.usb_host_eth_scan
                0x000000001782e69c      0x1ac drivers/usb/eth/built-in.o
                0x000000001782e69c                usb_host_eth_scan
 .text.asix_halt
                0x000000001782e848        0x4 drivers/usb/eth/built-in.o
 .text.asix_send_common
                0x000000001782e84c       0x98 drivers/usb/eth/built-in.o
 .text.asix_send
                0x000000001782e8e4        0x8 drivers/usb/eth/built-in.o
 .text.asix_recv
                0x000000001782e8ec      0x128 drivers/usb/eth/built-in.o
 .text.asix_write_cmd.isra.0
                0x000000001782ea14       0x54 drivers/usb/eth/built-in.o
 .text.asix_write_hwaddr_common
                0x000000001782ea68       0x44 drivers/usb/eth/built-in.o
 .text.asix_write_hwaddr
                0x000000001782eaac       0x10 drivers/usb/eth/built-in.o
 .text.asix_mdio_write
                0x000000001782eabc       0x80 drivers/usb/eth/built-in.o
 .text.asix_sw_reset
                0x000000001782eb3c       0x40 drivers/usb/eth/built-in.o
 .text.asix_read_cmd.isra.1
                0x000000001782eb7c       0x58 drivers/usb/eth/built-in.o
 .text.asix_mdio_read
                0x000000001782ebd4       0x80 drivers/usb/eth/built-in.o
 .text.asix_init
                0x000000001782ec54       0xec drivers/usb/eth/built-in.o
 .text.asix_read_rx_ctl
                0x000000001782ed40       0x40 drivers/usb/eth/built-in.o
 .text.asix_eth_before_probe
                0x000000001782ed80       0x14 drivers/usb/eth/built-in.o
                0x000000001782ed80                asix_eth_before_probe
 .text.asix_eth_probe
                0x000000001782ed94      0x188 drivers/usb/eth/built-in.o
                0x000000001782ed94                asix_eth_probe
 .text.asix_eth_get_info
                0x000000001782ef1c      0x344 drivers/usb/eth/built-in.o
                0x000000001782ef1c                asix_eth_get_info
 .text.usb_ep_autoconfig
                0x000000001782f260      0x1f4 drivers/usb/gadget/built-in.o
                0x000000001782f260                usb_ep_autoconfig
 .text.usb_ep_autoconfig_reset
                0x000000001782f454       0x38 drivers/usb/gadget/built-in.o
                0x000000001782f454                usb_ep_autoconfig_reset
 .text.usb_descriptor_fillbuf
                0x000000001782f48c       0x58 drivers/usb/gadget/built-in.o
                0x000000001782f48c                usb_descriptor_fillbuf
 .text.usb_gadget_get_string
                0x000000001782f4e4      0x190 drivers/usb/gadget/built-in.o
                0x000000001782f4e4                usb_gadget_get_string
 .text.ci_ep_disable
                0x000000001782f674       0x10 drivers/usb/gadget/built-in.o
 .text.ci_ep_dequeue
                0x000000001782f684       0x88 drivers/usb/gadget/built-in.o
 .text.ci_ep_free_request
                0x000000001782f70c       0x54 drivers/usb/gadget/built-in.o
 .text.ci_ep_alloc_request
                0x000000001782f760       0x68 drivers/usb/gadget/built-in.o
 .text.ci_flush_qtd
                0x000000001782f7c8       0x18 drivers/usb/gadget/built-in.o
 .text.ci_flush_qh
                0x000000001782f7e0       0x18 drivers/usb/gadget/built-in.o
 .text.stop_activity
                0x000000001782f7f8       0x90 drivers/usb/gadget/built-in.o
 .text.ep_enable
                0x000000001782f888       0x54 drivers/usb/gadget/built-in.o
 .text.ci_ep_enable
                0x000000001782f8dc       0x64 drivers/usb/gadget/built-in.o
 .text.ci_ep_submit_next_request
                0x000000001782f940      0x1cc drivers/usb/gadget/built-in.o
 .text.ci_ep_queue
                0x000000001782fb0c      0x138 drivers/usb/gadget/built-in.o
 .text.udc_irq  0x000000001782fc44      0x518 drivers/usb/gadget/built-in.o
                0x000000001782fc44                udc_irq
 .text.usb_gadget_handle_interrupts
                0x000000001783015c       0x2c drivers/usb/gadget/built-in.o
                0x000000001783015c                usb_gadget_handle_interrupts
 .text.udc_disconnect
                0x0000000017830188       0x44 drivers/usb/gadget/built-in.o
                0x0000000017830188                udc_disconnect
 .text.ci_pullup
                0x00000000178301cc       0x68 drivers/usb/gadget/built-in.o
 .text.usb_gadget_register_driver
                0x0000000017830234      0x278 drivers/usb/gadget/built-in.o
                0x0000000017830234                usb_gadget_register_driver
 .text.usb_gadget_unregister_driver
                0x00000000178304ac       0x4c drivers/usb/gadget/built-in.o
                0x00000000178304ac                usb_gadget_unregister_driver
 .text.dfu_usb_get_reset
                0x00000000178304f8       0x1c drivers/usb/gadget/built-in.o
                0x00000000178304f8                dfu_usb_get_reset
 .text.count_configs
                0x0000000017830514       0x68 drivers/usb/gadget/built-in.o
 .text.collect_langs
                0x000000001783057c       0x50 drivers/usb/gadget/built-in.o
 .text.composite_setup_complete
                0x00000000178305cc        0x4 drivers/usb/gadget/built-in.o
 .text.composite_suspend
                0x00000000178305d0       0x80 drivers/usb/gadget/built-in.o
 .text.composite_resume
                0x0000000017830650       0x7c drivers/usb/gadget/built-in.o
 .text.g_dnl_unbind
                0x00000000178306cc       0x28 drivers/usb/gadget/built-in.o
 .text.lookup_string
                0x00000000178306f4       0x4c drivers/usb/gadget/built-in.o
 .text.composite_unbind
                0x0000000017830740      0x128 drivers/usb/gadget/built-in.o
 .text.composite_bind
                0x0000000017830868      0x128 drivers/usb/gadget/built-in.o
 .text.g_dnl_do_config
                0x0000000017830990       0x5c drivers/usb/gadget/built-in.o
 .text.reset_config.isra.6
                0x00000000178309ec       0x5c drivers/usb/gadget/built-in.o
 .text.composite_disconnect
                0x0000000017830a48       0x40 drivers/usb/gadget/built-in.o
 .text.composite_setup
                0x0000000017830a88      0x85c drivers/usb/gadget/built-in.o
 .text.usb_add_function
                0x00000000178312e4       0xc4 drivers/usb/gadget/built-in.o
                0x00000000178312e4                usb_add_function
 .text.usb_interface_id
                0x00000000178313a8       0x24 drivers/usb/gadget/built-in.o
                0x00000000178313a8                usb_interface_id
 .text.usb_add_config
                0x00000000178313cc       0xcc drivers/usb/gadget/built-in.o
                0x00000000178313cc                usb_add_config
 .text.usb_string_id
                0x0000000017831498       0x20 drivers/usb/gadget/built-in.o
                0x0000000017831498                usb_string_id
 .text.usb_composite_register
                0x00000000178314b8       0x78 drivers/usb/gadget/built-in.o
                0x00000000178314b8                usb_composite_register
 .text.usb_composite_unregister
                0x0000000017831530       0x30 drivers/usb/gadget/built-in.o
                0x0000000017831530                usb_composite_unregister
 .text.g_dnl_set_serialnumber
                0x0000000017831560       0x48 drivers/usb/gadget/built-in.o
                0x0000000017831560                g_dnl_set_serialnumber
 .text.g_dnl_bind_fixup
                0x00000000178315a8        0x8 drivers/usb/gadget/built-in.o
                0x00000000178315a8                g_dnl_bind_fixup
 .text.g_dnl_get_board_bcd_device_number
                0x00000000178315b0        0x4 drivers/usb/gadget/built-in.o
                0x00000000178315b0                g_dnl_get_board_bcd_device_number
 .text.g_dnl_bind
                0x00000000178315b4      0x160 drivers/usb/gadget/built-in.o
 .text.g_dnl_board_usb_cable_connected
                0x0000000017831714        0x8 drivers/usb/gadget/built-in.o
                0x0000000017831714                g_dnl_board_usb_cable_connected
 .text.g_dnl_detach
                0x000000001783171c       0x10 drivers/usb/gadget/built-in.o
                0x000000001783171c                g_dnl_detach
 .text.g_dnl_trigger_detach
                0x000000001783172c       0x14 drivers/usb/gadget/built-in.o
                0x000000001783172c                g_dnl_trigger_detach
 .text.g_dnl_clear_detach
                0x0000000017831740       0x14 drivers/usb/gadget/built-in.o
                0x0000000017831740                g_dnl_clear_detach
 .text.g_dnl_register
                0x0000000017831754       0x40 drivers/usb/gadget/built-in.o
                0x0000000017831754                g_dnl_register
 .text.g_dnl_unregister
                0x0000000017831794        0xc drivers/usb/gadget/built-in.o
                0x0000000017831794                g_dnl_unregister
 .text.handle_getstate
                0x00000000178317a0       0x1c drivers/usb/gadget/built-in.o
 .text.dfu_set_alt
                0x00000000178317bc       0x1c drivers/usb/gadget/built-in.o
 .text.__dfu_get_alt
                0x00000000178317d8        0x8 drivers/usb/gadget/built-in.o
 .text.dfu_disable
                0x00000000178317e0       0x14 drivers/usb/gadget/built-in.o
 .text.dfu_add  0x00000000178317f4       0xf0 drivers/usb/gadget/built-in.o
                0x00000000178317f4                dfu_add
 .text.dfu_handle
                0x00000000178318e4       0xe4 drivers/usb/gadget/built-in.o
 .text.dnload_request_flush
                0x00000000178319c8       0x20 drivers/usb/gadget/built-in.o
 .text.dnload_request_complete
                0x00000000178319e8       0x38 drivers/usb/gadget/built-in.o
 .text.dfu_unbind
                0x0000000017831a20       0x8c drivers/usb/gadget/built-in.o
 .text.dfu_bind
                0x0000000017831aac      0x1ec drivers/usb/gadget/built-in.o
 .text.handle_upload.isra.5
                0x0000000017831c98       0x24 drivers/usb/gadget/built-in.o
 .text.handle_getstatus
                0x0000000017831cbc      0x138 drivers/usb/gadget/built-in.o
 .text.state_dfu_error
                0x0000000017831df4       0x64 drivers/usb/gadget/built-in.o
 .text.state_dfu_manifest_sync
                0x0000000017831e58       0x6c drivers/usb/gadget/built-in.o
 .text.state_dfu_dnload_idle
                0x0000000017831ec4       0xbc drivers/usb/gadget/built-in.o
 .text.state_dfu_dnbusy
                0x0000000017831f80       0x30 drivers/usb/gadget/built-in.o
 .text.state_dfu_dnload_sync
                0x0000000017831fb0       0x48 drivers/usb/gadget/built-in.o
 .text.state_app_detach
                0x0000000017831ff8       0x48 drivers/usb/gadget/built-in.o
 .text.state_app_idle
                0x0000000017832040       0x6c drivers/usb/gadget/built-in.o
 .text.state_dfu_upload_idle
                0x00000000178320ac       0xa0 drivers/usb/gadget/built-in.o
 .text.state_dfu_manifest
                0x000000001783214c       0x64 drivers/usb/gadget/built-in.o
 .text.state_dfu_idle
                0x00000000178321b0       0xec drivers/usb/gadget/built-in.o
 .text.raise_exception
                0x000000001783229c       0x20 drivers/usb/gadget/built-in.o
 .text.ep0_queue
                0x00000000178322bc       0x2c drivers/usb/gadget/built-in.o
 .text.bulk_in_complete
                0x00000000178322e8       0x44 drivers/usb/gadget/built-in.o
 .text.bulk_out_complete
                0x000000001783232c       0x44 drivers/usb/gadget/built-in.o
 .text.fsg_set_alt
                0x0000000017832370       0x20 drivers/usb/gadget/built-in.o
 .text.fsg_disable
                0x0000000017832390       0x14 drivers/usb/gadget/built-in.o
 .text.fsg_setup
                0x00000000178323a4       0xf8 drivers/usb/gadget/built-in.o
 .text.fsg_unbind
                0x000000001783249c       0x44 drivers/usb/gadget/built-in.o
 .text.store_cdrom_address
                0x00000000178324e0       0x80 drivers/usb/gadget/built-in.o
 .text.fsg_set_halt.isra.9
                0x0000000017832560       0x18 drivers/usb/gadget/built-in.o
 .text.start_transfer.isra.11
                0x0000000017832578       0x40 drivers/usb/gadget/built-in.o
 .text.halt_bulk_in_endpoint.isra.16
                0x00000000178325b8       0x38 drivers/usb/gadget/built-in.o
 .text.sleep_thread.isra.19
                0x00000000178325f0      0x108 drivers/usb/gadget/built-in.o
 .text.do_read  0x00000000178326f8      0x250 drivers/usb/gadget/built-in.o
 .text.do_write
                0x0000000017832948      0x330 drivers/usb/gadget/built-in.o
 .text.send_status
                0x0000000017832c78       0xf8 drivers/usb/gadget/built-in.o
 .text.check_command.isra.20
                0x0000000017832d70      0x16c drivers/usb/gadget/built-in.o
 .text.do_mode_sense.isra.22
                0x0000000017832edc      0x160 drivers/usb/gadget/built-in.o
 .text.fsg_add  0x000000001783303c      0x2f0 drivers/usb/gadget/built-in.o
                0x000000001783303c                fsg_add
 .text.do_set_interface
                0x000000001783332c      0x24c drivers/usb/gadget/built-in.o
 .text.fsg_main_thread
                0x0000000017833578     0x1274 drivers/usb/gadget/built-in.o
                0x0000000017833578                fsg_main_thread
 .text.usb_copy_descriptors
                0x00000000178347ec       0x80 drivers/usb/gadget/built-in.o
                0x00000000178347ec                usb_copy_descriptors
 .text.fsg_bind
                0x000000001783486c       0xf4 drivers/usb/gadget/built-in.o
 .text.fsg_init
                0x0000000017834960       0x20 drivers/usb/gadget/built-in.o
                0x0000000017834960                fsg_init
 .text.rx_bytes_expected
                0x0000000017834980       0x64 drivers/usb/gadget/built-in.o
 .text.fastboot_start_ep
                0x00000000178349e4       0x70 drivers/usb/gadget/built-in.o
 .text.fastboot_unbind
                0x0000000017834a54       0x18 drivers/usb/gadget/built-in.o
 .text.fastboot_add
                0x0000000017834a6c       0xbc drivers/usb/gadget/built-in.o
 .text.fastboot_disable
                0x0000000017834b28       0x8c drivers/usb/gadget/built-in.o
 .text.fastboot_set_alt
                0x0000000017834bb4      0x12c drivers/usb/gadget/built-in.o
 .text.fastboot_complete
                0x0000000017834ce0       0x28 drivers/usb/gadget/built-in.o
 .text.do_exit_on_complete
                0x0000000017834d08        0x4 drivers/usb/gadget/built-in.o
 .text.do_bootm_on_complete
                0x0000000017834d0c       0x7c drivers/usb/gadget/built-in.o
 .text.compl_do_reset
                0x0000000017834d88       0x14 drivers/usb/gadget/built-in.o
 .text.strcmp_l1
                0x0000000017834d9c       0x38 drivers/usb/gadget/built-in.o
 .text.fastboot_tx_write_str
                0x0000000017834dd4       0x84 drivers/usb/gadget/built-in.o
 .text.rx_handler_command
                0x0000000017834e58      0x114 drivers/usb/gadget/built-in.o
 .text.cb_oem   0x0000000017834f6c       0x38 drivers/usb/gadget/built-in.o
 .text.cb_continue
                0x0000000017834fa4       0x28 drivers/usb/gadget/built-in.o
 .text.cb_boot  0x0000000017834fcc       0x28 drivers/usb/gadget/built-in.o
 .text.cb_download
                0x0000000017834ff4       0xd8 drivers/usb/gadget/built-in.o
 .text.rx_handler_dl_image
                0x00000000178350cc      0x134 drivers/usb/gadget/built-in.o
 .text.cb_getvar
                0x0000000017835200      0x1c4 drivers/usb/gadget/built-in.o
 .text.fastboot_bind
                0x00000000178353c4      0x100 drivers/usb/gadget/built-in.o
 .text.fb_set_reboot_flag
                0x00000000178354c4        0x8 drivers/usb/gadget/built-in.o
                0x00000000178354c4                fb_set_reboot_flag
 .text.cb_reboot
                0x00000000178354cc       0x5c drivers/usb/gadget/built-in.o
 .text.ehci_get_port_speed
                0x0000000017835528        0x8 drivers/usb/host/built-in.o
 .text.ehci_set_usbmode
                0x0000000017835530       0x18 drivers/usb/host/built-in.o
 .text.ehci_get_portsc_register
                0x0000000017835548       0x18 drivers/usb/host/built-in.o
 .text.ehci_powerup_fixup
                0x0000000017835560        0x8 drivers/usb/host/built-in.o
 .text.handshake
                0x0000000017835568       0x54 drivers/usb/host/built-in.o
 .text.ehci_shutdown
                0x00000000178355bc       0xa0 drivers/usb/host/built-in.o
 .text.ehci_td_buffer
                0x000000001783565c       0x88 drivers/usb/host/built-in.o
 .text._ehci_poll_int_queue
                0x00000000178356e4       0xbc drivers/usb/host/built-in.o
 .text.disable_periodic.isra.2
                0x00000000178357a0       0x48 drivers/usb/host/built-in.o
 .text.enable_periodic.isra.3
                0x00000000178357e8       0x50 drivers/usb/host/built-in.o
 .text._ehci_destroy_int_queue
                0x0000000017835838       0xdc drivers/usb/host/built-in.o
 .text.ehci_update_endpt2_dev_n_port.isra.4
                0x0000000017835914       0x5c drivers/usb/host/built-in.o
 .text.ehci_submit_async
                0x0000000017835970      0x5ac drivers/usb/host/built-in.o
 .text._ehci_create_int_queue.isra.6
                0x0000000017835f1c      0x39c drivers/usb/host/built-in.o
 .text.usb_lowlevel_stop
                0x00000000178362b8       0x28 drivers/usb/host/built-in.o
                0x00000000178362b8                usb_lowlevel_stop
 .text.usb_lowlevel_init
                0x00000000178362e0      0x29c drivers/usb/host/built-in.o
                0x00000000178362e0                usb_lowlevel_init
 .text.submit_bulk_msg
                0x000000001783657c       0x28 drivers/usb/host/built-in.o
                0x000000001783657c                submit_bulk_msg
 .text.submit_control_msg
                0x00000000178365a4      0x518 drivers/usb/host/built-in.o
                0x00000000178365a4                submit_control_msg
 .text.submit_int_msg
                0x0000000017836abc       0xac drivers/usb/host/built-in.o
                0x0000000017836abc                submit_int_msg
 .text.usb_phy_mode
                0x0000000017836b68       0x18 drivers/usb/host/built-in.o
                0x0000000017836b68                usb_phy_mode
 .text.board_usb_phy_mode
                0x0000000017836b80        0x4 drivers/usb/host/built-in.o
                0x0000000017836b80                board_usb_phy_mode
 .text.ehci_hcd_init
                0x0000000017836b84      0x258 drivers/usb/host/built-in.o
                0x0000000017836b84                ehci_hcd_init
 .text.ehci_hcd_stop
                0x0000000017836ddc        0x8 drivers/usb/host/built-in.o
                0x0000000017836ddc                ehci_hcd_stop
 .text.fs_probe_unsupported
                0x0000000017836de4       0x18 fs/built-in.o
 .text.fs_ls_unsupported
                0x0000000017836dfc        0x8 fs/built-in.o
 .text.fs_exists_unsupported
                0x0000000017836e04        0x8 fs/built-in.o
 .text.fs_size_unsupported
                0x0000000017836e0c        0x8 fs/built-in.o
 .text.fs_read_unsupported
                0x0000000017836e14        0x8 fs/built-in.o
 .text.fs_write_unsupported
                0x0000000017836e1c        0x8 fs/built-in.o
 .text.fs_close_unsupported
                0x0000000017836e24        0x4 fs/built-in.o
 .text.fs_uuid_unsupported
                0x0000000017836e28        0x8 fs/built-in.o
 .text.fs_get_info
                0x0000000017836e30       0x30 fs/built-in.o
 .text.fs_close
                0x0000000017836e60       0x28 fs/built-in.o
 .text.fs_set_blk_dev
                0x0000000017836e88       0xb8 fs/built-in.o
                0x0000000017836e88                fs_set_blk_dev
 .text.fs_ls    0x0000000017836f40       0x3c fs/built-in.o
                0x0000000017836f40                fs_ls
 .text.fs_exists
                0x0000000017836f7c       0x34 fs/built-in.o
                0x0000000017836f7c                fs_exists
 .text.fs_size  0x0000000017836fb0       0x3c fs/built-in.o
                0x0000000017836fb0                fs_size
 .text.fs_read  0x0000000017836fec       0xa0 fs/built-in.o
                0x0000000017836fec                fs_read
 .text.fs_write
                0x000000001783708c       0x88 fs/built-in.o
                0x000000001783708c                fs_write
 .text.do_size  0x0000000017837114       0x60 fs/built-in.o
                0x0000000017837114                do_size
 .text.do_load  0x0000000017837174      0x258 fs/built-in.o
                0x0000000017837174                do_load
 .text.do_ls    0x00000000178373cc       0x68 fs/built-in.o
                0x00000000178373cc                do_ls
 .text.file_exists
                0x0000000017837434       0x2c fs/built-in.o
                0x0000000017837434                file_exists
 .text.do_save  0x0000000017837460      0x190 fs/built-in.o
                0x0000000017837460                do_save
 .text.do_fs_type
                0x00000000178375f0       0x78 fs/built-in.o
                0x00000000178375f0                do_fs_type
 .text.get_fs   0x0000000017837668        0xc fs/built-in.o
                0x0000000017837668                get_fs
 .text.ext4fs_free_node
                0x0000000017837674       0x24 fs/built-in.o
                0x0000000017837674                ext4fs_free_node
 .text.ext4fs_read_file
                0x0000000017837698      0x394 fs/built-in.o
                0x0000000017837698                ext4fs_read_file
 .text.ext4fs_ls
                0x0000000017837a2c       0x78 fs/built-in.o
                0x0000000017837a2c                ext4fs_ls
 .text.ext4fs_exists
                0x0000000017837aa4       0x1c fs/built-in.o
                0x0000000017837aa4                ext4fs_exists
 .text.ext4fs_size
                0x0000000017837ac0        0x4 fs/built-in.o
                0x0000000017837ac0                ext4fs_size
 .text.ext4fs_read
                0x0000000017837ac4       0x5c fs/built-in.o
                0x0000000017837ac4                ext4fs_read
 .text.ext4fs_probe
                0x0000000017837b20       0x30 fs/built-in.o
                0x0000000017837b20                ext4fs_probe
 .text.ext4_read_file
                0x0000000017837b50       0x7c fs/built-in.o
                0x0000000017837b50                ext4_read_file
 .text.ext4fs_uuid
                0x0000000017837bcc       0x1c fs/built-in.o
                0x0000000017837bcc                ext4fs_uuid
 .text.ext4fs_div_roundup
                0x0000000017837be8       0x20 fs/built-in.o
                0x0000000017837be8                ext4fs_div_roundup
 .text.put_ext4
                0x0000000017837c08      0x18c fs/built-in.o
                0x0000000017837c08                put_ext4
 .text.ext4fs_set_block_bmap
                0x0000000017837d94       0xb0 fs/built-in.o
                0x0000000017837d94                ext4fs_set_block_bmap
 .text.ext4fs_reset_block_bmap
                0x0000000017837e44       0x9c fs/built-in.o
                0x0000000017837e44                ext4fs_reset_block_bmap
 .text.ext4fs_set_inode_bmap
                0x0000000017837ee0       0x74 fs/built-in.o
                0x0000000017837ee0                ext4fs_set_inode_bmap
 .text.ext4fs_reset_inode_bmap
                0x0000000017837f54       0x70 fs/built-in.o
                0x0000000017837f54                ext4fs_reset_inode_bmap
 .text.ext4fs_checksum_update
                0x0000000017837fc4       0x60 fs/built-in.o
                0x0000000017837fc4                ext4fs_checksum_update
 .text.ext4fs_get_new_blk_no
                0x0000000017838024      0x3b8 fs/built-in.o
                0x0000000017838024                ext4fs_get_new_blk_no
 .text.ext4fs_get_new_inode_no
                0x00000000178383dc      0x384 fs/built-in.o
                0x00000000178383dc                ext4fs_get_new_inode_no
 .text.ext4fs_allocate_blocks
                0x0000000017838760      0x650 fs/built-in.o
                0x0000000017838760                ext4fs_allocate_blocks
 .text.ext4fs_read_inode
                0x0000000017838db0      0x134 fs/built-in.o
                0x0000000017838db0                ext4fs_read_inode
 .text.ext4fs_iget
                0x0000000017838ee4       0x30 fs/built-in.o
                0x0000000017838ee4                ext4fs_iget
 .text.read_allocated_block
                0x0000000017838f14      0x958 fs/built-in.o
                0x0000000017838f14                read_allocated_block
 .text.ext4fs_update_parent_dentry
                0x000000001783986c      0x394 fs/built-in.o
                0x000000001783986c                ext4fs_update_parent_dentry
 .text.search_dir
                0x0000000017839c00      0x128 fs/built-in.o
 .text.ext4fs_get_parent_inode_num
                0x0000000017839d28      0x448 fs/built-in.o
                0x0000000017839d28                ext4fs_get_parent_inode_num
 .text.ext4fs_filename_check
                0x000000001783a170      0x170 fs/built-in.o
                0x000000001783a170                ext4fs_filename_check
 .text.ext4fs_reinit_global
                0x000000001783a2e0       0xbc fs/built-in.o
                0x000000001783a2e0                ext4fs_reinit_global
 .text.ext4fs_close
                0x000000001783a39c       0x60 fs/built-in.o
                0x000000001783a39c                ext4fs_close
 .text.ext4fs_iterate_dir
                0x000000001783a3fc      0x2c8 fs/built-in.o
                0x000000001783a3fc                ext4fs_iterate_dir
 .text.ext4fs_find_file1
                0x000000001783a6c4      0x2c0 fs/built-in.o
 .text.ext4fs_find_file
                0x000000001783a984       0x78 fs/built-in.o
                0x000000001783a984                ext4fs_find_file
 .text.ext4fs_open
                0x000000001783a9fc       0xac fs/built-in.o
                0x000000001783a9fc                ext4fs_open
 .text.ext4fs_mount
                0x000000001783aaa8       0xc4 fs/built-in.o
                0x000000001783aaa8                ext4fs_mount
 .text.ext4fs_set_blk_dev
                0x000000001783ab6c       0x6c fs/built-in.o
                0x000000001783ab6c                ext4fs_set_blk_dev
 .text.ext4fs_devread
                0x000000001783abd8      0x26c fs/built-in.o
                0x000000001783abd8                ext4fs_devread
 .text.ext4_read_superblock
                0x000000001783ae44       0x3c fs/built-in.o
                0x000000001783ae44                ext4_read_superblock
 .text.ext4fs_update
                0x000000001783ae80       0xf0 fs/built-in.o
 .text.ext4fs_get_bgdtable
                0x000000001783af70       0xd4 fs/built-in.o
                0x000000001783af70                ext4fs_get_bgdtable
 .text.ext4fs_deinit
                0x000000001783b044      0x1a0 fs/built-in.o
                0x000000001783b044                ext4fs_deinit
 .text.ext4fs_init
                0x000000001783b1e4      0x2c0 fs/built-in.o
                0x000000001783b1e4                ext4fs_init
 .text.ext4fs_write
                0x000000001783b4a4     0x12e4 fs/built-in.o
                0x000000001783b4a4                ext4fs_write
 .text.ext4_write_file
                0x000000001783c788       0x60 fs/built-in.o
                0x000000001783c788                ext4_write_file
 .text.ext4fs_dump_metadata
                0x000000001783c7e8       0x58 fs/built-in.o
                0x000000001783c7e8                ext4fs_dump_metadata
 .text.ext4fs_free_journal
                0x000000001783c840       0xe4 fs/built-in.o
                0x000000001783c840                ext4fs_free_journal
 .text.ext4fs_log_gdt
                0x000000001783c924       0xc8 fs/built-in.o
                0x000000001783c924                ext4fs_log_gdt
 .text.ext4fs_log_journal
                0x000000001783c9ec       0xf0 fs/built-in.o
                0x000000001783c9ec                ext4fs_log_journal
 .text.ext4fs_put_metadata
                0x000000001783cadc       0xc0 fs/built-in.o
                0x000000001783cadc                ext4fs_put_metadata
 .text.ext4fs_push_revoke_blk
                0x000000001783cb9c       0xd8 fs/built-in.o
                0x000000001783cb9c                ext4fs_push_revoke_blk
 .text.ext4fs_free_revoke_blks
                0x000000001783cc74       0x70 fs/built-in.o
                0x000000001783cc74                ext4fs_free_revoke_blks
 .text.check_blknr_for_revoke
                0x000000001783cce4       0x70 fs/built-in.o
                0x000000001783cce4                check_blknr_for_revoke
 .text.recover_transaction
                0x000000001783cd54      0x168 fs/built-in.o
                0x000000001783cd54                recover_transaction
 .text.print_jrnl_status
                0x000000001783cebc       0x18 fs/built-in.o
                0x000000001783cebc                print_jrnl_status
 .text.ext4fs_check_journal_state
                0x000000001783ced4      0x330 fs/built-in.o
                0x000000001783ced4                ext4fs_check_journal_state
 .text.ext4fs_init_journal
                0x000000001783d204      0x258 fs/built-in.o
                0x000000001783d204                ext4fs_init_journal
 .text.ext4fs_update_journal
                0x000000001783d45c      0x330 fs/built-in.o
                0x000000001783d45c                ext4fs_update_journal
 .text.ext2fs_crc16
                0x000000001783d78c       0x3c fs/built-in.o
                0x000000001783d78c                ext2fs_crc16
 .text.downcase
                0x000000001783d7c8       0x30 fs/built-in.o
 .text.disk_read
                0x000000001783d7f8       0x64 fs/built-in.o
 .text.dirdelim
                0x000000001783d85c       0x30 fs/built-in.o
 .text.get_fatent
                0x000000001783d88c      0x154 fs/built-in.o
 .text.mkcksum  0x000000001783d9e0       0x54 fs/built-in.o
 .text.get_cluster
                0x000000001783da34      0x178 fs/built-in.o
 .text.get_name
                0x000000001783dbac       0xac fs/built-in.o
 .text.read_bootsectandvi
                0x000000001783dc58      0x124 fs/built-in.o
 .text.slot2str
                0x000000001783dd7c       0xc0 fs/built-in.o
 .text.get_vfatname
                0x000000001783de3c      0x1c0 fs/built-in.o
 .text.fat_set_blk_dev
                0x000000001783dffc       0xd0 fs/built-in.o
                0x000000001783dffc                fat_set_blk_dev
 .text.do_fat_read_at
                0x000000001783e0cc      0xd1c fs/built-in.o
                0x000000001783e0cc                do_fat_read_at
 .text.do_fat_read
                0x000000001783ede8       0x3c fs/built-in.o
                0x000000001783ede8                do_fat_read
 .text.file_fat_detectfs
                0x000000001783ee24      0x148 fs/built-in.o
                0x000000001783ee24                file_fat_detectfs
 .text.file_fat_ls
                0x000000001783ef6c       0x2c fs/built-in.o
                0x000000001783ef6c                file_fat_ls
 .text.fat_exists
                0x000000001783ef98       0x44 fs/built-in.o
                0x000000001783ef98                fat_exists
 .text.fat_size
                0x000000001783efdc       0x38 fs/built-in.o
                0x000000001783efdc                fat_size
 .text.file_fat_read_at
                0x000000001783f014       0x60 fs/built-in.o
                0x000000001783f014                file_fat_read_at
 .text.fat_read_file
                0x000000001783f074       0x48 fs/built-in.o
                0x000000001783f074                fat_read_file
 .text.fat_close
                0x000000001783f0bc        0x4 fs/built-in.o
                0x000000001783f0bc                fat_close
 .text.efi_return_handle
                0x000000001783f0c0        0xc lib/built-in.o
                0x000000001783f0c0                efi_return_handle
 .text.efi_load_pe
                0x000000001783f0cc      0x2b8 lib/built-in.o
                0x000000001783f0cc                efi_load_pe
 .text.efi_search.isra.1.part.2
                0x000000001783f384       0x48 lib/built-in.o
 .text.efi_save_gd
                0x000000001783f3cc       0x10 lib/built-in.o
                0x000000001783f3cc                efi_save_gd
 .text.efi_restore_gd
                0x000000001783f3dc       0x2c lib/built-in.o
                0x000000001783f3dc                efi_restore_gd
 .text.efi_set_mem
                0x000000001783f408       0x28 lib/built-in.o
 .text.efi_copy_mem
                0x000000001783f430       0x28 lib/built-in.o
 .text.efi_allocate_pages_ext
                0x000000001783f458       0x3c lib/built-in.o
                0x000000001783f458                efi_allocate_pages_ext
 .text.efi_free_pages_ext
                0x000000001783f494       0x34 lib/built-in.o
                0x000000001783f494                efi_free_pages_ext
 .text.efi_get_memory_map_ext
                0x000000001783f4c8       0x48 lib/built-in.o
                0x000000001783f4c8                efi_get_memory_map_ext
 .text.efi_calculate_crc32
                0x000000001783f510       0x3c lib/built-in.o
 .text.efi_uninstall_multiple_protocol_interfaces
                0x000000001783f54c       0x28 lib/built-in.o
 .text.efi_install_multiple_protocol_interfaces
                0x000000001783f574       0x28 lib/built-in.o
 .text.efi_locate_protocol
                0x000000001783f59c       0x4c lib/built-in.o
 .text.efi_locate_handle_buffer
                0x000000001783f5e8       0x1c lib/built-in.o
 .text.efi_protocols_per_handle
                0x000000001783f604       0x1c lib/built-in.o
 .text.efi_open_protocol_information
                0x000000001783f620       0x1c lib/built-in.o
 .text.efi_close_protocol
                0x000000001783f63c       0x1c lib/built-in.o
 .text.efi_open_protocol
                0x000000001783f658       0xc8 lib/built-in.o
 .text.efi_handle_protocol
                0x000000001783f720       0x1c lib/built-in.o
 .text.efi_disconnect_controller
                0x000000001783f73c       0x1c lib/built-in.o
 .text.efi_connect_controller
                0x000000001783f758       0x1c lib/built-in.o
 .text.efi_set_watchdog_timer
                0x000000001783f774       0x1c lib/built-in.o
 .text.efi_stall
                0x000000001783f790       0x28 lib/built-in.o
 .text.efi_get_next_monotonic_count
                0x000000001783f7b8       0x3c lib/built-in.o
 .text.efi_exit_boot_services
                0x000000001783f7f4       0x38 lib/built-in.o
 .text.efi_unload_image
                0x000000001783f82c       0x64 lib/built-in.o
 .text.efi_exit
                0x000000001783f890       0x1c lib/built-in.o
 .text.efi_start_image
                0x000000001783f8ac       0x44 lib/built-in.o
 .text.efi_load_image
                0x000000001783f8f0       0xc0 lib/built-in.o
 .text.efi_install_configuration_table
                0x000000001783f9b0       0xac lib/built-in.o
 .text.efi_locate_device_path
                0x000000001783fa5c       0x1c lib/built-in.o
 .text.efi_locate_handle
                0x000000001783fa78       0xdc lib/built-in.o
 .text.efi_register_protocol_notify
                0x000000001783fb54       0x1c lib/built-in.o
 .text.efi_uninstall_protocol_interface
                0x000000001783fb70       0x1c lib/built-in.o
 .text.efi_reinstall_protocol_interface
                0x000000001783fb8c       0x1c lib/built-in.o
 .text.efi_install_protocol_interface
                0x000000001783fba8       0x1c lib/built-in.o
 .text.efi_check_event
                0x000000001783fbc4       0x1c lib/built-in.o
 .text.efi_close_event
                0x000000001783fbe0       0x30 lib/built-in.o
 .text.efi_signal_event
                0x000000001783fc10       0x1c lib/built-in.o
 .text.efi_set_timer
                0x000000001783fc2c       0xc8 lib/built-in.o
 .text.efi_create_event
                0x000000001783fcf4       0x64 lib/built-in.o
 .text.efi_free_pool
                0x000000001783fd58       0x2c lib/built-in.o
 .text.efi_allocate_pool
                0x000000001783fd84       0x40 lib/built-in.o
 .text.efi_restore_tpl
                0x000000001783fdc4       0x18 lib/built-in.o
 .text.efi_raise_tpl
                0x000000001783fddc       0x1c lib/built-in.o
 .text.efi_exit_func
                0x000000001783fdf8       0x10 lib/built-in.o
                0x000000001783fdf8                efi_exit_func
 .text.efi_timer_check
                0x000000001783fe08       0x64 lib/built-in.o
                0x000000001783fe08                efi_timer_check
 .text.efi_wait_for_event
                0x000000001783fe6c       0x44 lib/built-in.o
 .text.efi_get_time
                0x000000001783feb0        0x8 lib/built-in.o
 .text.efi_reset_system
                0x000000001783feb8       0x34 lib/built-in.o
 .text.efi_runtime_relocate
                0x000000001783feec      0x13c lib/built-in.o
                0x000000001783feec                efi_runtime_relocate
 .text.efi_set_virtual_address_map
                0x0000000017840028       0xb4 lib/built-in.o
 .text.efi_cin_lock_std_in
                0x00000000178400dc       0x14 lib/built-in.o
 .text.efi_cin_set_mode
                0x00000000178400f0       0x14 lib/built-in.o
 .text.efi_cin_get_mode
                0x0000000017840104       0x44 lib/built-in.o
 .text.efi_cout_set_attribute
                0x0000000017840148       0x14 lib/built-in.o
 .text.efi_cout_test_string
                0x000000001784015c       0x14 lib/built-in.o
 .text.efi_cout_reset
                0x0000000017840170       0x14 lib/built-in.o
 .text.efi_cin_reset
                0x0000000017840184       0x14 lib/built-in.o
 .text.efi_cout_enable_cursor
                0x0000000017840198       0x30 lib/built-in.o
 .text.efi_cout_set_cursor_position
                0x00000000178401c8       0x40 lib/built-in.o
 .text.efi_cout_clear_screen
                0x0000000017840208       0x20 lib/built-in.o
 .text.efi_cout_output_string
                0x0000000017840228       0xf0 lib/built-in.o
 .text.efi_cout_set_mode
                0x0000000017840318       0x20 lib/built-in.o
 .text.efi_cin_read_key_stroke
                0x0000000017840338      0x120 lib/built-in.o
 .text.efi_cout_query_mode
                0x0000000017840458      0x14c lib/built-in.o
 .text.efi_mem_cmp
                0x00000000178405a4       0x30 lib/built-in.o
 .text.efi_find_free_memory
                0x00000000178405d4       0xb4 lib/built-in.o
 .text.efi_add_memory_map
                0x0000000017840688      0x2a8 lib/built-in.o
                0x0000000017840688                efi_add_memory_map
 .text.efi_allocate_pages
                0x0000000017840930       0xb0 lib/built-in.o
                0x0000000017840930                efi_allocate_pages
 .text.efi_alloc
                0x00000000178409e0       0x50 lib/built-in.o
                0x00000000178409e0                efi_alloc
 .text.efi_free_pages
                0x0000000017840a30        0x8 lib/built-in.o
                0x0000000017840a30                efi_free_pages
 .text.efi_get_memory_map
                0x0000000017840a38       0x9c lib/built-in.o
                0x0000000017840a38                efi_get_memory_map
 .text.efi_memory_init
                0x0000000017840ad4       0xd4 lib/built-in.o
                0x0000000017840ad4                efi_memory_init
 .text.efi_disk_open_block
                0x0000000017840ba8       0x10 lib/built-in.o
 .text.efi_disk_open_dp
                0x0000000017840bb8       0x10 lib/built-in.o
 .text.efi_disk_flush_blocks
                0x0000000017840bc8       0x14 lib/built-in.o
 .text.efi_disk_reset
                0x0000000017840bdc       0x14 lib/built-in.o
 .text.efi_disk_rw_blocks.isra.2
                0x0000000017840bf0       0xac lib/built-in.o
 .text.efi_disk_write_blocks
                0x0000000017840c9c       0x28 lib/built-in.o
 .text.efi_disk_read_blocks
                0x0000000017840cc4       0x28 lib/built-in.o
 .text.efi_disk_register
                0x0000000017840cec      0x1e8 lib/built-in.o
                0x0000000017840cec                efi_disk_register
 .text.zcalloc  0x0000000017840ed4        0x8 lib/built-in.o
                0x0000000017840ed4                zcalloc
 .text.zcfree   0x0000000017840edc        0x8 lib/built-in.o
                0x0000000017840edc                zcfree
 .text.inflate_fast
                0x0000000017840ee4      0x5a8 lib/built-in.o
                0x0000000017840ee4                inflate_fast
 .text.inflate_table
                0x000000001784148c      0x56c lib/built-in.o
                0x000000001784148c                inflate_table
 .text.inflateReset
                0x00000000178419f8       0x7c lib/built-in.o
                0x00000000178419f8                inflateReset
 .text.inflateInit2_
                0x0000000017841a74      0x104 lib/built-in.o
                0x0000000017841a74                inflateInit2_
 .text.inflateEnd
                0x0000000017841b78       0x64 lib/built-in.o
                0x0000000017841b78                inflateEnd
 .text.adler32  0x0000000017841bdc      0x344 lib/built-in.o
                0x0000000017841bdc                adler32
 .text.inflate  0x0000000017841f20     0x14dc lib/built-in.o
                0x0000000017841f20                inflate
 .text.crc16_ccitt
                0x00000000178433fc       0x3c lib/built-in.o
                0x00000000178433fc                crc16_ccitt
 .text.gzalloc  0x0000000017843438       0x10 lib/built-in.o
                0x0000000017843438                gzalloc
 .text.gzfree   0x0000000017843448        0x8 lib/built-in.o
                0x0000000017843448                gzfree
 .text.zunzip   0x0000000017843450      0x110 lib/built-in.o
                0x0000000017843450                zunzip
 .text.gunzip   0x0000000017843560       0xc8 lib/built-in.o
                0x0000000017843560                gunzip
 .text.initcall_run_list
                0x0000000017843628       0x60 lib/built-in.o
                0x0000000017843628                initcall_run_list
 .text.lmb_add_region
                0x0000000017843688      0x1c0 lib/built-in.o
 .text.lmb_init
                0x0000000017843848       0x28 lib/built-in.o
                0x0000000017843848                lmb_init
 .text.lmb_add  0x0000000017843870        0x4 lib/built-in.o
                0x0000000017843870                lmb_add
 .text.lmb_free
                0x0000000017843874      0x10c lib/built-in.o
                0x0000000017843874                lmb_free
 .text.lmb_reserve
                0x0000000017843980        0x8 lib/built-in.o
                0x0000000017843980                lmb_reserve
 .text.__lmb_alloc_base
                0x0000000017843988      0x168 lib/built-in.o
                0x0000000017843988                __lmb_alloc_base
 .text.lmb_alloc_base
                0x0000000017843af0       0x34 lib/built-in.o
                0x0000000017843af0                lmb_alloc_base
 .text.lmb_alloc
                0x0000000017843b24        0x8 lib/built-in.o
                0x0000000017843b24                lmb_alloc
 .text.board_lmb_reserve
                0x0000000017843b2c        0x4 lib/built-in.o
                0x0000000017843b2c                board_lmb_reserve
 .text.string_to_ip
                0x0000000017843b30       0x60 lib/built-in.o
                0x0000000017843b30                string_to_ip
 .text.qsort    0x0000000017843b90       0xe4 lib/built-in.o
                0x0000000017843b90                qsort
 .text.strcmp_compar
                0x0000000017843c74        0xc lib/built-in.o
                0x0000000017843c74                strcmp_compar
 .text.merge    0x0000000017843c80       0x68 lib/built-in.o
 .text.list_sort
                0x0000000017843ce8      0x198 lib/built-in.o
                0x0000000017843ce8                list_sort
 .text.fdt_check_header
                0x0000000017843e80       0x78 lib/built-in.o
                0x0000000017843e80                fdt_check_header
 .text.fdt_offset_ptr
                0x0000000017843ef8       0x4c lib/built-in.o
                0x0000000017843ef8                fdt_offset_ptr
 .text.fdt_next_tag
                0x0000000017843f44       0xf8 lib/built-in.o
                0x0000000017843f44                fdt_next_tag
 .text._fdt_check_node_offset
                0x000000001784403c       0x3c lib/built-in.o
                0x000000001784403c                _fdt_check_node_offset
 .text._fdt_check_prop_offset
                0x0000000017844078       0x3c lib/built-in.o
                0x0000000017844078                _fdt_check_prop_offset
 .text.fdt_next_node
                0x00000000178440b4       0xc0 lib/built-in.o
                0x00000000178440b4                fdt_next_node
 .text._fdt_find_string
                0x0000000017844174       0x5c lib/built-in.o
                0x0000000017844174                _fdt_find_string
 .text.fdt_move
                0x00000000178441d0       0x48 lib/built-in.o
                0x00000000178441d0                fdt_move
 .text.fdt_path_next_seperator
                0x0000000017844218       0x4c lib/built-in.o
 .text._nextprop
                0x0000000017844264       0x5c lib/built-in.o
 .text.fdt_string
                0x00000000178442c0       0x14 lib/built-in.o
                0x00000000178442c0                fdt_string
 .text.fdt_get_mem_rsv
                0x00000000178442d4       0x5c lib/built-in.o
                0x00000000178442d4                fdt_get_mem_rsv
 .text.fdt_num_mem_rsv
                0x0000000017844330       0x38 lib/built-in.o
                0x0000000017844330                fdt_num_mem_rsv
 .text.fdt_subnode_offset_namelen
                0x0000000017844368       0xd4 lib/built-in.o
                0x0000000017844368                fdt_subnode_offset_namelen
 .text.fdt_subnode_offset
                0x000000001784443c       0x30 lib/built-in.o
                0x000000001784443c                fdt_subnode_offset
 .text.fdt_get_name
                0x000000001784446c       0x74 lib/built-in.o
                0x000000001784446c                fdt_get_name
 .text.fdt_first_property_offset
                0x00000000178444e0       0x20 lib/built-in.o
                0x00000000178444e0                fdt_first_property_offset
 .text.fdt_next_property_offset
                0x0000000017844500       0x20 lib/built-in.o
                0x0000000017844500                fdt_next_property_offset
 .text.fdt_get_property_by_offset
                0x0000000017844520       0x54 lib/built-in.o
                0x0000000017844520                fdt_get_property_by_offset
 .text.fdt_get_property_namelen
                0x0000000017844574       0xb8 lib/built-in.o
                0x0000000017844574                fdt_get_property_namelen
 .text.fdt_get_property
                0x000000001784462c       0x3c lib/built-in.o
                0x000000001784462c                fdt_get_property
 .text.fdt_getprop_namelen
                0x0000000017844668       0x20 lib/built-in.o
                0x0000000017844668                fdt_getprop_namelen
 .text.fdt_getprop_by_offset
                0x0000000017844688       0x48 lib/built-in.o
                0x0000000017844688                fdt_getprop_by_offset
 .text.fdt_getprop
                0x00000000178446d0       0x3c lib/built-in.o
                0x00000000178446d0                fdt_getprop
 .text.fdt_get_alias_namelen
                0x000000001784470c       0x4c lib/built-in.o
                0x000000001784470c                fdt_get_alias_namelen
 .text.fdt_path_offset
                0x0000000017844758       0xe8 lib/built-in.o
                0x0000000017844758                fdt_path_offset
 .text.fdt_supernode_atdepth_offset
                0x0000000017844840       0xb8 lib/built-in.o
                0x0000000017844840                fdt_supernode_atdepth_offset
 .text.fdt_node_depth
                0x00000000178448f8       0x28 lib/built-in.o
                0x00000000178448f8                fdt_node_depth
 .text._fdt_blocks_misordered
                0x0000000017844920       0x64 lib/built-in.o
 .text._fdt_splice
                0x0000000017844984       0x78 lib/built-in.o
 .text._fdt_splice_mem_rsv
                0x00000000178449fc       0x58 lib/built-in.o
 .text._fdt_splice_struct
                0x0000000017844a54       0x4c lib/built-in.o
 .text._fdt_packblocks
                0x0000000017844aa0       0xa8 lib/built-in.o
 .text._fdt_find_add_string
                0x0000000017844b48       0xa8 lib/built-in.o
 .text._fdt_add_property
                0x0000000017844bf0       0x98 lib/built-in.o
 .text._fdt_rw_check_header
                0x0000000017844c88       0x60 lib/built-in.o
 .text.fdt_add_mem_rsv
                0x0000000017844ce8       0x94 lib/built-in.o
                0x0000000017844ce8                fdt_add_mem_rsv
 .text.fdt_del_mem_rsv
                0x0000000017844d7c       0x5c lib/built-in.o
                0x0000000017844d7c                fdt_del_mem_rsv
 .text.fdt_setprop
                0x0000000017844dd8       0xcc lib/built-in.o
                0x0000000017844dd8                fdt_setprop
 .text.fdt_delprop
                0x0000000017844ea4       0x60 lib/built-in.o
                0x0000000017844ea4                fdt_delprop
 .text.fdt_add_subnode_namelen
                0x0000000017844f04       0xf4 lib/built-in.o
                0x0000000017844f04                fdt_add_subnode_namelen
 .text.fdt_add_subnode
                0x0000000017844ff8       0x30 lib/built-in.o
                0x0000000017844ff8                fdt_add_subnode
 .text.fdt_del_node
                0x0000000017845028       0x60 lib/built-in.o
                0x0000000017845028                fdt_del_node
 .text.fdt_open_into
                0x0000000017845088      0x1a0 lib/built-in.o
                0x0000000017845088                fdt_open_into
 .text.fdt_strerror
                0x0000000017845228       0x58 lib/built-in.o
                0x0000000017845228                fdt_strerror
 .text._fdt_node_end_offset
                0x0000000017845280       0x44 lib/built-in.o
                0x0000000017845280                _fdt_node_end_offset
 .text.fdt_address_cells
                0x00000000178452c4       0x50 lib/built-in.o
                0x00000000178452c4                fdt_address_cells
 .text.fdt_size_cells
                0x0000000017845314       0x4c lib/built-in.o
                0x0000000017845314                fdt_size_cells
 .text.cmpkey   0x0000000017845360       0x14 lib/built-in.o
 .text._hdelete.isra.1
                0x0000000017845374       0x50 lib/built-in.o
 .text.drop_var_from_set.part.2
                0x00000000178453c4       0x50 lib/built-in.o
 .text.match_string
                0x0000000017845414       0xb4 lib/built-in.o
 .text.match_entry
                0x00000000178454c8       0xc0 lib/built-in.o
 .text.hcreate_r
                0x0000000017845588       0xac lib/built-in.o
                0x0000000017845588                hcreate_r
 .text.hdestroy_r
                0x0000000017845634       0x74 lib/built-in.o
                0x0000000017845634                hdestroy_r
 .text.hmatch_r
                0x00000000178456a8       0xa0 lib/built-in.o
                0x00000000178456a8                hmatch_r
 .text.hsearch_r
                0x0000000017845748      0x498 lib/built-in.o
                0x0000000017845748                hsearch_r
 .text.hdelete_r
                0x0000000017845be0       0xd4 lib/built-in.o
                0x0000000017845be0                hdelete_r
 .text.hexport_r
                0x0000000017845cb4      0x2c4 lib/built-in.o
                0x0000000017845cb4                hexport_r
 .text.himport_r
                0x0000000017845f78      0x3f0 lib/built-in.o
                0x0000000017845f78                himport_r
 .text.hwalk_r  0x0000000017846368       0x58 lib/built-in.o
                0x0000000017846368                hwalk_r
 .text.display_options
                0x00000000178463c0       0x20 lib/built-in.o
                0x00000000178463c0                display_options
 .text.print_size
                0x00000000178463e0      0x134 lib/built-in.o
                0x00000000178463e0                print_size
 .text.print_buffer
                0x0000000017846514      0x1c0 lib/built-in.o
                0x0000000017846514                print_buffer
 .text.crc32_no_comp
                0x00000000178466d4       0xd8 lib/built-in.o
                0x00000000178466d4                crc32_no_comp
 .text.crc32    0x00000000178467ac       0x14 lib/built-in.o
                0x00000000178467ac                crc32
 .text.crc32_wd
                0x00000000178467c0        0x4 lib/built-in.o
                0x00000000178467c0                crc32_wd
 .text.crc32_wd_buf
                0x00000000178467c4       0x40 lib/built-in.o
                0x00000000178467c4                crc32_wd_buf
 .text.__div64_32
                0x0000000017846804       0xd4 lib/built-in.o
                0x0000000017846804                __div64_32
 .text.hang     0x00000000178468d8       0x1c lib/built-in.o
                0x00000000178468d8                hang
 .text.skip_spaces
                0x00000000178468f4       0x28 lib/built-in.o
                0x00000000178468f4                skip_spaces
 .text.strim    0x000000001784691c       0x60 lib/built-in.o
                0x000000001784691c                strim
 .text.emit     0x000000001784697c       0x24 lib/built-in.o
 .text.store_char_in_data
                0x00000000178469a0       0x28 lib/built-in.o
 .text.get_escape_char
                0x00000000178469c8       0x84 lib/built-in.o
 .text.match    0x0000000017846a4c      0x3f8 lib/built-in.o
 .text.loop_greedy
                0x0000000017846e44       0x90 lib/built-in.o
 .text.loop_non_greedy
                0x0000000017846ed4       0x80 lib/built-in.o
 .text.fixup_branch
                0x0000000017846f54       0x3c lib/built-in.o
 .text.quantifier
                0x0000000017846f90       0xb8 lib/built-in.o
 .text.compile  0x0000000017847048      0x398 lib/built-in.o
 .text.slre_compile
                0x00000000178473e0       0xd4 lib/built-in.o
                0x00000000178473e0                slre_compile
 .text.slre_match
                0x00000000178474b4       0x98 lib/built-in.o
                0x00000000178474b4                slre_match
 .text.strcpy   0x000000001784754c       0x1c lib/built-in.o
                0x000000001784754c                strcpy
 .text.strncpy  0x0000000017847568       0x24 lib/built-in.o
                0x0000000017847568                strncpy
 .text.strcat   0x000000001784758c       0x30 lib/built-in.o
                0x000000001784758c                strcat
 .text.strncat  0x00000000178475bc       0x54 lib/built-in.o
                0x00000000178475bc                strncat
 .text.strcmp   0x0000000017847610       0x2c lib/built-in.o
                0x0000000017847610                strcmp
 .text.strncmp  0x000000001784763c       0x40 lib/built-in.o
                0x000000001784763c                strncmp
 .text.strchr   0x000000001784767c       0x2c lib/built-in.o
                0x000000001784767c                strchr
 .text.strlen   0x00000000178476a8       0x20 lib/built-in.o
                0x00000000178476a8                strlen
 .text.strrchr  0x00000000178476c8       0x3c lib/built-in.o
                0x00000000178476c8                strrchr
 .text.strnlen  0x0000000017847704       0x30 lib/built-in.o
                0x0000000017847704                strnlen
 .text.strdup   0x0000000017847734       0x3c lib/built-in.o
                0x0000000017847734                strdup
 .text.strspn   0x0000000017847770       0x3c lib/built-in.o
                0x0000000017847770                strspn
 .text.strpbrk  0x00000000178477ac       0x3c lib/built-in.o
                0x00000000178477ac                strpbrk
 .text.strtok   0x00000000178477e8       0x88 lib/built-in.o
                0x00000000178477e8                strtok
 .text.strsep   0x0000000017847870       0x38 lib/built-in.o
                0x0000000017847870                strsep
 .text.memset   0x00000000178478a8       0x60 lib/built-in.o
                0x00000000178478a8                memset
 .text.memcpy   0x0000000017847908       0x60 lib/built-in.o
                0x0000000017847908                memcpy
 .text.strlcpy  0x0000000017847968       0x50 lib/built-in.o
                0x0000000017847968                strlcpy
 .text.memmove  0x00000000178479b8       0x54 lib/built-in.o
                0x00000000178479b8                memmove
 .text.memcmp   0x0000000017847a0c       0x34 lib/built-in.o
                0x0000000017847a0c                memcmp
 .text.strstr   0x0000000017847a40       0x68 lib/built-in.o
                0x0000000017847a40                strstr
 .text.memchr   0x0000000017847aa8       0x30 lib/built-in.o
                0x0000000017847aa8                memchr
 .text.tick_to_time
                0x0000000017847ad8       0x64 lib/built-in.o
 .text.get_ticks
                0x0000000017847b3c       0x3c lib/built-in.o
                0x0000000017847b3c                get_ticks
 .text.get_timer
                0x0000000017847b78       0x18 lib/built-in.o
                0x0000000017847b78                get_timer
 .text.timer_get_us
                0x0000000017847b90       0x24 lib/built-in.o
                0x0000000017847b90                timer_get_us
 .text.__udelay
                0x0000000017847bb4       0x90 lib/built-in.o
                0x0000000017847bb4                __udelay
 .text.udelay   0x0000000017847c44       0x30 lib/built-in.o
                0x0000000017847c44                udelay
 .text.mdelay   0x0000000017847c74       0x24 lib/built-in.o
                0x0000000017847c74                mdelay
 .text.put_dec_trunc
                0x0000000017847c98       0xe0 lib/built-in.o
 .text.string   0x0000000017847d78       0xb8 lib/built-in.o
 .text.put_dec  0x0000000017847e30      0x134 lib/built-in.o
 .text.number   0x0000000017847f64      0x2c4 lib/built-in.o
 .text.vsnprintf_internal
                0x0000000017848228      0x6bc lib/built-in.o
 .text.vscnprintf
                0x00000000178488e4       0x24 lib/built-in.o
                0x00000000178488e4                vscnprintf
 .text.snprintf
                0x0000000017848908       0x28 lib/built-in.o
                0x0000000017848908                snprintf
 .text.vsprintf
                0x0000000017848930       0x14 lib/built-in.o
                0x0000000017848930                vsprintf
 .text.sprintf  0x0000000017848944       0x28 lib/built-in.o
                0x0000000017848944                sprintf
 .text.printf   0x000000001784896c       0x44 lib/built-in.o
                0x000000001784896c                printf
 .text.vprintf  0x00000000178489b0       0x34 lib/built-in.o
                0x00000000178489b0                vprintf
 .text.simple_itoa
                0x00000000178489e4       0x54 lib/built-in.o
                0x00000000178489e4                simple_itoa
 .text.str2off  0x0000000017848a38       0x44 lib/built-in.o
                0x0000000017848a38                str2off
 .text.panic_finish
                0x0000000017848a7c       0x30 lib/built-in.o
 .text.panic    0x0000000017848aac       0x1c lib/built-in.o
                0x0000000017848aac                panic
 .text.simple_strtoul
                0x0000000017848ac8       0xb8 lib/built-in.o
                0x0000000017848ac8                simple_strtoul
 .text.strict_strtoul
                0x0000000017848b80       0x7c lib/built-in.o
                0x0000000017848b80                strict_strtoul
 .text.simple_strtol
                0x0000000017848bfc       0x28 lib/built-in.o
                0x0000000017848bfc                simple_strtol
 .text.ustrtoul
                0x0000000017848c24       0x70 lib/built-in.o
                0x0000000017848c24                ustrtoul
 .text.simple_strtoull
                0x0000000017848c94       0xdc lib/built-in.o
                0x0000000017848c94                simple_strtoull
 .text.ustrtoull
                0x0000000017848d70       0x88 lib/built-in.o
                0x0000000017848d70                ustrtoull
 .text.trailing_strtoln
                0x0000000017848df8       0x60 lib/built-in.o
                0x0000000017848df8                trailing_strtoln
 .text.trailing_strtol
                0x0000000017848e58        0x8 lib/built-in.o
                0x0000000017848e58                trailing_strtol
 .text.compute_ip_checksum
                0x0000000017848e60       0x68 net/built-in.o
                0x0000000017848e60                compute_ip_checksum
 .text.ip_checksum_ok
                0x0000000017848ec8       0x1c net/built-in.o
                0x0000000017848ec8                ip_checksum_ok
 .text.arp_init
                0x0000000017848ee4       0x50 net/built-in.o
                0x0000000017848ee4                arp_init
 .text.arp_raw_request
                0x0000000017848f34       0xc4 net/built-in.o
                0x0000000017848f34                arp_raw_request
 .text.arp_request
                0x0000000017848ff8       0x80 net/built-in.o
                0x0000000017848ff8                arp_request
 .text.arp_timeout_check
                0x0000000017849078       0x8c net/built-in.o
                0x0000000017849078                arp_timeout_check
 .text.arp_receive
                0x0000000017849104      0x210 net/built-in.o
                0x0000000017849104                arp_receive
 .text.dhcp_process_options
                0x0000000017849314      0x1d0 net/built-in.o
 .text.dhcp_packet_process_options
                0x00000000178494e4       0x84 net/built-in.o
 .text.dhcp_handler
                0x0000000017849568      0x4b0 net/built-in.o
 .text.bootp_reset
                0x0000000017849a18       0x44 net/built-in.o
                0x0000000017849a18                bootp_reset
 .text.bootp_request
                0x0000000017849a5c      0x2d4 net/built-in.o
                0x0000000017849a5c                bootp_request
 .text.bootp_timeout_handler
                0x0000000017849d30       0x70 net/built-in.o
 .text.dhcp_request
                0x0000000017849da0        0x4 net/built-in.o
                0x0000000017849da0                dhcp_request
 .text.__def_eth_init
                0x0000000017849da4        0x8 net/built-in.o
 .text.on_ethaddr
                0x0000000017849dac       0x90 net/built-in.o
 .text.eth_set_current_to_next
                0x0000000017849e3c       0x18 net/built-in.o
                0x0000000017849e3c                eth_set_current_to_next
 .text.eth_set_dev
                0x0000000017849e54       0x10 net/built-in.o
                0x0000000017849e54                eth_set_dev
 .text.eth_get_dev_by_name
                0x0000000017849e64       0x84 net/built-in.o
                0x0000000017849e64                eth_get_dev_by_name
 .text.eth_get_dev_by_index
                0x0000000017849ee8       0x48 net/built-in.o
                0x0000000017849ee8                eth_get_dev_by_index
 .text.eth_get_dev_index
                0x0000000017849f30       0x1c net/built-in.o
                0x0000000017849f30                eth_get_dev_index
 .text.eth_write_hwaddr
                0x0000000017849f4c      0x1e8 net/built-in.o
                0x0000000017849f4c                eth_write_hwaddr
 .text.eth_register
                0x000000001784a134       0x7c net/built-in.o
                0x000000001784a134                eth_register
 .text.eth_unregister
                0x000000001784a1b0       0x9c net/built-in.o
                0x000000001784a1b0                eth_unregister
 .text.eth_initialize
                0x000000001784a24c      0x188 net/built-in.o
                0x000000001784a24c                eth_initialize
 .text.eth_init
                0x000000001784a3d4       0x7c net/built-in.o
                0x000000001784a3d4                eth_init
 .text.eth_halt
                0x000000001784a450       0x30 net/built-in.o
                0x000000001784a450                eth_halt
 .text.eth_send
                0x000000001784a480       0x38 net/built-in.o
                0x000000001784a480                eth_send
 .text.eth_rx   0x000000001784a4b8       0x2c net/built-in.o
                0x000000001784a4b8                eth_rx
 .text.eth_parse_enetaddr
                0x000000001784a4e4       0x58 net/built-in.o
                0x000000001784a4e4                eth_parse_enetaddr
 .text.eth_getenv_enetaddr
                0x000000001784a53c       0x5c net/built-in.o
                0x000000001784a53c                eth_getenv_enetaddr
 .text.eth_setenv_enetaddr
                0x000000001784a598       0x34 net/built-in.o
                0x000000001784a598                eth_setenv_enetaddr
 .text.eth_getenv_enetaddr_by_index
                0x000000001784a5cc       0x50 net/built-in.o
                0x000000001784a5cc                eth_getenv_enetaddr_by_index
 .text.eth_setenv_enetaddr_by_index
                0x000000001784a61c       0x50 net/built-in.o
                0x000000001784a61c                eth_setenv_enetaddr_by_index
 .text.eth_common_init
                0x000000001784a66c       0x18 net/built-in.o
                0x000000001784a66c                eth_common_init
 .text.eth_mac_skip
                0x000000001784a684       0x40 net/built-in.o
                0x000000001784a684                eth_mac_skip
 .text.eth_get_name
                0x000000001784a6c4       0x20 net/built-in.o
                0x000000001784a6c4                eth_get_name
 .text.eth_current_changed
                0x000000001784a6e4       0x9c net/built-in.o
                0x000000001784a6e4                eth_current_changed
 .text.eth_try_another
                0x000000001784a780       0x84 net/built-in.o
                0x000000001784a780                eth_try_another
 .text.eth_set_current
                0x000000001784a804       0x8c net/built-in.o
                0x000000001784a804                eth_set_current
 .text.start_again_timeout_handler
                0x000000001784a890       0x14 net/built-in.o
 .text.dummy_handler
                0x000000001784a8a4        0x4 net/built-in.o
 .text.on_ipaddr
                0x000000001784a8a8       0x28 net/built-in.o
 .text.on_gatewayip
                0x000000001784a8d0       0x28 net/built-in.o
 .text.on_netmask
                0x000000001784a8f8       0x28 net/built-in.o
 .text.on_serverip
                0x000000001784a920       0x28 net/built-in.o
 .text.net_init_loop
                0x000000001784a948       0x28 net/built-in.o
 .text.net_clear_handlers
                0x000000001784a970       0x34 net/built-in.o
 .text.net_auto_load
                0x000000001784a9a4       0x64 net/built-in.o
                0x000000001784a9a4                net_auto_load
 .text.net_init
                0x000000001784aa08       0x70 net/built-in.o
                0x000000001784aa08                net_init
 .text.net_start_again
                0x000000001784aa78      0x168 net/built-in.o
                0x000000001784aa78                net_start_again
 .text.net_loop
                0x000000001784abe0      0x374 net/built-in.o
                0x000000001784abe0                net_loop
 .text.net_set_udp_handler
                0x000000001784af54       0x20 net/built-in.o
                0x000000001784af54                net_set_udp_handler
 .text.net_get_arp_handler
                0x000000001784af74       0x10 net/built-in.o
                0x000000001784af74                net_get_arp_handler
 .text.net_set_timeout_handler
                0x000000001784af84       0x4c net/built-in.o
                0x000000001784af84                net_set_timeout_handler
 .text.net_process_received_packet
                0x000000001784afd0      0x280 net/built-in.o
                0x000000001784afd0                net_process_received_packet
 .text.net_eth_hdr_size
                0x000000001784b250       0x38 net/built-in.o
                0x000000001784b250                net_eth_hdr_size
 .text.net_set_ether
                0x000000001784b288       0x98 net/built-in.o
                0x000000001784b288                net_set_ether
 .text.net_update_ether
                0x000000001784b320       0x78 net/built-in.o
                0x000000001784b320                net_update_ether
 .text.net_set_ip_header
                0x000000001784b398       0x8c net/built-in.o
                0x000000001784b398                net_set_ip_header
 .text.net_set_udp_header
                0x000000001784b424       0x84 net/built-in.o
                0x000000001784b424                net_set_udp_header
 .text.net_send_udp_packet
                0x000000001784b4a8      0x114 net/built-in.o
                0x000000001784b4a8                net_send_udp_packet
 .text.copy_filename
                0x000000001784b5bc       0x48 net/built-in.o
                0x000000001784b5bc                copy_filename
 .text.on_bootfile
                0x000000001784b604       0x34 net/built-in.o
 .text.ip_to_string
                0x000000001784b638       0x38 net/built-in.o
                0x000000001784b638                ip_to_string
 .text.string_to_vlan
                0x000000001784b670       0x48 net/built-in.o
                0x000000001784b670                string_to_vlan
 .text.on_nvlan
                0x000000001784b6b8       0x28 net/built-in.o
 .text.on_vlan  0x000000001784b6e0       0x28 net/built-in.o
 .text.rpc_lookup_reply
                0x000000001784b708       0xb4 net/built-in.o
 .text.nfs_mount_reply
                0x000000001784b7bc       0xac net/built-in.o
 .text.nfs_umountall_reply
                0x000000001784b868       0x9c net/built-in.o
 .text.nfs_lookup_reply
                0x000000001784b904       0x9c net/built-in.o
 .text.nfs_readlink_reply
                0x000000001784b9a0       0xfc net/built-in.o
 .text.basename
                0x000000001784ba9c       0x3c net/built-in.o
 .text.rpc_add_credentials
                0x000000001784bad8       0xb4 net/built-in.o
 .text.rpc_req  0x000000001784bb8c       0xf8 net/built-in.o
 .text.nfs_mount_req
                0x000000001784bc84       0x94 net/built-in.o
 .text.nfs_umountall_req
                0x000000001784bd18       0x60 net/built-in.o
 .text.nfs_lookup_req
                0x000000001784bd78       0xa8 net/built-in.o
 .text.nfs_read_req
                0x000000001784be20       0x78 net/built-in.o
 .text.nfs_readlink_req
                0x000000001784be98       0x58 net/built-in.o
 .text.nfs_read_reply.isra.2
                0x000000001784bef0      0x140 net/built-in.o
 .text.nfs_send
                0x000000001784c030      0x114 net/built-in.o
 .text.nfs_handler
                0x000000001784c144      0x238 net/built-in.o
 .text.nfs_timeout_handler
                0x000000001784c37c       0x64 net/built-in.o
 .text.nfs_start
                0x000000001784c3e0      0x258 net/built-in.o
                0x000000001784c3e0                nfs_start
 .text.ping_timeout_handler
                0x000000001784c638       0x1c net/built-in.o
 .text.ping_start
                0x000000001784c654      0x118 net/built-in.o
                0x000000001784c654                ping_start
 .text.ping_receive
                0x000000001784c76c       0xdc net/built-in.o
                0x000000001784c76c                ping_receive
 .text.tftp_send
                0x000000001784c848      0x1c4 net/built-in.o
 .text.tftp_handler
                0x000000001784ca0c      0x394 net/built-in.o
 .text.tftp_timeout_handler
                0x000000001784cda0       0x88 net/built-in.o
 .text.tftp_start
                0x000000001784ce28      0x384 net/built-in.o
                0x000000001784ce28                tftp_start
 .text.do_dm_dump_devres
                0x000000001784d1ac        0x8 test/dm/built-in.o
 .text.do_dm    0x000000001784d1b4       0x6c test/dm/built-in.o
 .text.do_dm_dump_uclass
                0x000000001784d220       0x10 test/dm/built-in.o
 .text.do_dm_dump_all
                0x000000001784d230       0x10 test/dm/built-in.o
 .text.raise    0x000000001784d240       0x1c arch/arm/lib/eabi_compat.o
                0x000000001784d240                raise
 .text          0x000000001784d25c       0xc8 /opt/poky/1.5.1/sysroots/cortexa9hf-vfp-neon-poky-linux-gnueabi/usr/lib/arm-poky-linux-gnueabi/4.8.1/libgcc.a(_udivsi3.o)
                0x000000001784d25c                __udivsi3
                0x000000001784d25c                __aeabi_uidiv
                0x000000001784d304                __aeabi_uidivmod
 .text          0x000000001784d324       0xfc /opt/poky/1.5.1/sysroots/cortexa9hf-vfp-neon-poky-linux-gnueabi/usr/lib/arm-poky-linux-gnueabi/4.8.1/libgcc.a(_divsi3.o)
                0x000000001784d324                __aeabi_idiv
                0x000000001784d324                __divsi3
                0x000000001784d400                __aeabi_idivmod
 .text          0x000000001784d420       0x1c /opt/poky/1.5.1/sysroots/cortexa9hf-vfp-neon-poky-linux-gnueabi/usr/lib/arm-poky-linux-gnueabi/4.8.1/libgcc.a(_lshrdi3.o)
                0x000000001784d420                __aeabi_llsr
                0x000000001784d420                __lshrdi3
 .text          0x000000001784d43c       0x1c /opt/poky/1.5.1/sysroots/cortexa9hf-vfp-neon-poky-linux-gnueabi/usr/lib/arm-poky-linux-gnueabi/4.8.1/libgcc.a(_ashldi3.o)
                0x000000001784d43c                __ashldi3
                0x000000001784d43c                __aeabi_llsl
 .text          0x000000001784d458       0x10 /opt/poky/1.5.1/sysroots/cortexa9hf-vfp-neon-poky-linux-gnueabi/usr/lib/arm-poky-linux-gnueabi/4.8.1/libgcc.a(_dvmd_lnx.o)
                0x000000001784d458                __aeabi_ldiv0
                0x000000001784d458                __aeabi_idiv0

.glue_7         0x000000001784d468        0x0
 .glue_7        0x0000000000000000        0x0 linker stubs

.glue_7t        0x000000001784d468        0x0
 .glue_7t       0x0000000000000000        0x0 linker stubs

.vfp11_veneer   0x000000001784d468        0x0
 .vfp11_veneer  0x0000000000000000        0x0 linker stubs

.v4_bx          0x000000001784d468        0x0
 .v4_bx         0x0000000000000000        0x0 linker stubs

.iplt           0x000000001784d468        0x0
 .iplt          0x0000000000000000        0x0 arch/arm/cpu/armv7/start.o
                0x000000001784d468                . = ALIGN (0x4)

.rodata         0x000000001784d468    0x11861
 *(SORT(.rodata*))
 .rodata.di0_pads
                0x000000001784d468       0x18 board/freescale/mx6sabresd/built-in.o
                0x000000001784d468                di0_pads
 .rodata.ecspi1_pads
                0x000000001784d480       0x20 board/freescale/mx6sabresd/built-in.o
 .rodata.efi_boot_services
                0x000000001784d4a0       0xc8 lib/built-in.o
 .rodata.enet_pads
                0x000000001784d568       0x80 board/freescale/mx6sabresd/built-in.o
 .rodata.pcie_pads
                0x000000001784d5e8       0x10 board/freescale/mx6sabresd/built-in.o
                0x000000001784d5e8                pcie_pads
 .rodata.rgb_pads
                0x000000001784d5f8       0xf0 board/freescale/mx6sabresd/built-in.o
 .rodata.uart1_pads
                0x000000001784d6e8       0x10 board/freescale/mx6sabresd/built-in.o
 .rodata.usb_hc1_pads
                0x000000001784d6f8        0x8 board/freescale/mx6sabresd/built-in.o
 .rodata.usb_otg_pads
                0x000000001784d700       0x10 board/freescale/mx6sabresd/built-in.o
 .rodata.usdhc2_pads
                0x000000001784d710       0x58 board/freescale/mx6sabresd/built-in.o
 .rodata.usdhc3_pads
                0x000000001784d768       0x58 board/freescale/mx6sabresd/built-in.o
 .rodata.usdhc4_pads
                0x000000001784d7c0       0x50 board/freescale/mx6sabresd/built-in.o
 .rodata        0x000000001784d810       0x80 arch/arm/lib/built-in.o
 .rodata        0x000000001784d890       0x30 drivers/built-in.o
 .rodata        0x000000001784d8c0        0xc drivers/power/built-in.o
 .rodata.CSWTCH.13
                0x000000001784d8cc       0x88 arch/arm/imx-common/built-in.o
 .rodata.CSWTCH.14
                0x000000001784d954       0x44 drivers/built-in.o
 .rodata.CSWTCH.28
                0x000000001784d998       0x20 common/built-in.o
 .rodata.CSWTCH.32
                0x000000001784d9b8       0x14 cmd/built-in.o
 .rodata.asix_dongles
                0x000000001784d9cc       0x68 drivers/usb/eth/built-in.o
 .rodata.board_boot_modes
                0x000000001784da34       0x20 board/freescale/mx6sabresd/built-in.o
 .rodata.boot_os
                0x000000001784da54       0x60 common/built-in.o
 .rodata.ci_ep_init
                0x000000001784dab4       0xb4 drivers/usb/gadget/built-in.o
 .rodata.cmd_dispatch_info
                0x000000001784db68       0x30 drivers/usb/gadget/built-in.o
 .rodata.cpu_ctrl_mask
                0x000000001784db98       0x10 arch/arm/cpu/armv7/built-in.o
 .rodata.cpu_reset_mask
                0x000000001784dba8       0x10 arch/arm/cpu/armv7/built-in.o
 .rodata.crc_table
                0x000000001784dbb8      0x400 lib/built-in.o
 .rodata.data_abort_bounce_handler.8239
                0x000000001784dfb8        0x4 drivers/pci/built-in.o
 .rodata.desc_and_len_tbl
                0x000000001784dfbc       0x30 cmd/built-in.o
 .rodata.dfu_state
                0x000000001784dfec       0x2c drivers/usb/gadget/built-in.o
 .rodata.displays
                0x000000001784e018       0xe4 board/freescale/mx6sabresd/built-in.o
                0x000000001784e018                displays
 .rodata.dp_csc_array
                0x000000001784e0fc       0xc8 drivers/built-in.o
 .rodata.efi_con_in
                0x000000001784e1c4        0xc lib/built-in.o
                0x000000001784e1c4                efi_con_in
 .rodata.efi_con_out
                0x000000001784e1d0       0x28 lib/built-in.o
                0x000000001784e1d0                efi_con_out
 .rodata.efi_console_control
                0x000000001784e1f8        0xc lib/built-in.o
                0x000000001784e1f8                efi_console_control
 .rodata.env_flags_varaccess_mask
                0x000000001784e204       0x10 common/built-in.o
 .rodata.esdhc_ops
                0x000000001784e214       0x14 drivers/mmc/built-in.o
 .rodata.ext_csd_bits.9460
                0x000000001784e228       0x14 drivers/mmc/built-in.o
 .rodata.ext_to_hostcaps.9461
                0x000000001784e23c       0x1c drivers/mmc/built-in.o
 .rodata.fbase  0x000000001784e258       0x10 drivers/mmc/built-in.o
 .rodata.fdt_errtable
                0x000000001784e268       0x34 lib/built-in.o
 .rodata.gpio_ports
                0x000000001784e29c       0x1c drivers/gpio/built-in.o
 .rodata.imx6_thermal_plat
                0x000000001784e2b8        0xc arch/arm/cpu/armv7/built-in.o
 .rodata.imx_thermal_ops
                0x000000001784e2c4        0x4 drivers/built-in.o
 .rodata.multipliers
                0x000000001784e2c8       0x40 drivers/mmc/built-in.o
 .rodata.op_adv
                0x000000001784e308      0x100 cmd/built-in.o
                0x000000001784e308                op_adv
 .rodata.op_table
                0x000000001784e408       0x68 cmd/built-in.o
 .rodata.phy_bases
                0x000000001784e470        0x8 drivers/usb/host/built-in.o
 .rodata.prob_dev
                0x000000001784e478       0x18 drivers/usb/eth/built-in.o
 .rodata.reg_0_5_desc_tbl
                0x000000001784e490       0x30 cmd/built-in.o
 .rodata.reg_0_desc_tbl
                0x000000001784e4c0       0x78 cmd/built-in.o
 .rodata.reg_1_desc_tbl
                0x000000001784e538       0xc0 cmd/built-in.o
 .rodata.reg_2_desc_tbl
                0x000000001784e5f8        0xc cmd/built-in.o
 .rodata.reg_3_desc_tbl
                0x000000001784e604       0x24 cmd/built-in.o
 .rodata.reg_4_desc_tbl
                0x000000001784e628       0x90 cmd/built-in.o
 .rodata.reg_5_desc_tbl
                0x000000001784e6b8       0x90 cmd/built-in.o
 .rodata.rgb2ycbcr_coeff
                0x000000001784e748       0x3c drivers/built-in.o
 .rodata.root_info
                0x000000001784e784        0x8 drivers/built-in.o
 .rodata.soc_boot_modes
                0x000000001784e78c       0x60 arch/arm/cpu/armv7/built-in.o
                0x000000001784e78c                soc_boot_modes
 .rodata.spi_bases
                0x000000001784e7ec       0x10 drivers/spi/built-in.o
 .rodata.spi_flash_params_table
                0x000000001784e7fc      0x240 drivers/mtd/spi/built-in.o
                0x000000001784e7fc                spi_flash_params_table
 .rodata.uimage_arch
                0x000000001784ea3c      0x12c common/built-in.o
 .rodata.uimage_comp
                0x000000001784eb68       0x54 common/built-in.o
 .rodata.uimage_os
                0x000000001784ebbc       0x78 common/built-in.o
 .rodata.uimage_type
                0x000000001784ec34      0x15c common/built-in.o
 .rodata.video_font_draw_table15
                0x000000001784ed90       0x10 drivers/built-in.o
 .rodata.video_font_draw_table16
                0x000000001784eda0       0x10 drivers/built-in.o
 .rodata.video_font_draw_table24
                0x000000001784edb0       0xc0 drivers/built-in.o
 .rodata.video_font_draw_table32
                0x000000001784ee70      0x100 drivers/built-in.o
 .rodata.video_font_draw_table8
                0x000000001784ef70       0x40 drivers/built-in.o
 .rodata.widths.9462
                0x000000001784efb0       0x14 drivers/mmc/built-in.o
 .rodata.ycbcr2rgb_coeff
                0x000000001784efc4       0x3c drivers/built-in.o
 .rodata.crc16_tab
                0x000000001784f000      0x200 lib/built-in.o
 .rodata.crc16_table
                0x000000001784f200      0x200 fs/built-in.o
 .rodata.dbase.7635
                0x000000001784f400       0x40 lib/built-in.o
 .rodata.dext.7636
                0x000000001784f440       0x40 lib/built-in.o
 .rodata.distfix
                0x000000001784f480       0x80 lib/built-in.o
 .rodata.i2c_clk_div
                0x000000001784f500       0xc8 drivers/i2c/built-in.o
 .rodata.lbase.7633
                0x000000001784f5c8       0x3e lib/built-in.o
 .rodata.lenfix
                0x000000001784f606      0x800 lib/built-in.o
 .rodata.lext.7634
                0x000000001784fe06       0x3e lib/built-in.o
 .rodata.order.7729
                0x000000001784fe44       0x26 lib/built-in.o
 .rodata        0x000000001784fe6a       0x12 cmd/built-in.o
 .rodata        0x000000001784fe7c        0x3 common/built-in.o
 .rodata        0x000000001784fe7f       0x3f drivers/usb/host/built-in.o
 .rodata        0x000000001784febe        0x7 net/built-in.o
 .rodata.CSWTCH.66
                0x000000001784fec5       0x16 common/built-in.o
 .rodata.__FUNCTION__.10791
                0x000000001784fedb       0x11 drivers/usb/gadget/built-in.o
 .rodata.__FUNCTION__.8037
                0x000000001784feec       0x14 net/built-in.o
 .rodata.__FUNCTION__.8999
                0x000000001784ff00       0x17 common/built-in.o
 .rodata.__func__.10037
                0x000000001784ff17        0xc drivers/usb/gadget/built-in.o
 .rodata.__func__.10127
                0x000000001784ff23       0x17 drivers/usb/host/built-in.o
 .rodata.__func__.10243
                0x000000001784ff3a       0x13 drivers/built-in.o
 .rodata.__func__.10316
                0x000000001784ff4d       0x16 drivers/built-in.o
 .rodata.__func__.10329
                0x000000001784ff63        0xc drivers/built-in.o
 .rodata.__func__.10334
                0x000000001784ff6f       0x12 drivers/built-in.o
 .rodata.__func__.10358
                0x000000001784ff81        0xa drivers/built-in.o
 .rodata.__func__.10381
                0x000000001784ff8b        0x9 drivers/built-in.o
 .rodata.__func__.10390
                0x000000001784ff94       0x10 drivers/built-in.o
 .rodata.__func__.10415
                0x000000001784ffa4       0x14 drivers/built-in.o
 .rodata.__func__.10489
                0x000000001784ffb8        0x7 cmd/built-in.o
 .rodata.__func__.10491
                0x000000001784ffbf        0xd drivers/built-in.o
 .rodata.__func__.10516
                0x000000001784ffcc        0xc drivers/built-in.o
 .rodata.__func__.10534
                0x000000001784ffd8       0x15 drivers/built-in.o
 .rodata.__func__.10548
                0x000000001784ffed       0x18 drivers/built-in.o
 .rodata.__func__.10569
                0x0000000017850005       0x14 drivers/built-in.o
 .rodata.__func__.10584
                0x0000000017850019       0x14 drivers/built-in.o
 .rodata.__func__.10928
                0x000000001785002d        0xf drivers/usb/gadget/built-in.o
 .rodata.__func__.7445
                0x000000001785003c       0x16 arch/arm/cpu/armv7/built-in.o
 .rodata.__func__.7507
                0x0000000017850052       0x1b arch/arm/lib/built-in.o
 .rodata.__func__.7546
                0x000000001785006d        0xa drivers/built-in.o
 .rodata.__func__.7572
                0x0000000017850077        0xf drivers/power/built-in.o
 .rodata.__func__.7575
                0x0000000017850086        0xb drivers/built-in.o
 .rodata.__func__.7583
                0x0000000017850091        0xf arch/arm/imx-common/built-in.o
 .rodata.__func__.7585
                0x00000000178500a0        0xe drivers/power/built-in.o
 .rodata.__func__.7593
                0x00000000178500ae        0xa drivers/built-in.o
 .rodata.__func__.7604
                0x00000000178500b8        0xe drivers/built-in.o
 .rodata.__func__.7617
                0x00000000178500c6       0x14 drivers/power/pmic/built-in.o
 .rodata.__func__.7650
                0x00000000178500da        0xb drivers/power/built-in.o
 .rodata.__func__.7662
                0x00000000178500e5        0xf fs/built-in.o
 .rodata.__func__.7692
                0x00000000178500f4       0x10 common/built-in.o
 .rodata.__func__.7695
                0x0000000017850104       0x13 fs/built-in.o
 .rodata.__func__.7704
                0x0000000017850117       0x14 fs/built-in.o
 .rodata.__func__.7708
                0x000000001785012b        0xb common/built-in.o
 .rodata.__func__.7715
                0x0000000017850136        0xb common/built-in.o
 .rodata.__func__.8042
                0x0000000017850141       0x1c fs/built-in.o
 .rodata.__func__.8073
                0x000000001785015d        0xe cmd/built-in.o
 .rodata.__func__.8077
                0x000000001785016b        0xd drivers/built-in.o
 .rodata.__func__.8110
                0x0000000017850178        0xe cmd/built-in.o
 .rodata.__func__.8115
                0x0000000017850186        0xc lib/built-in.o
 .rodata.__func__.8307
                0x0000000017850192        0xa drivers/usb/gadget/built-in.o
 .rodata.__func__.8373
                0x000000001785019c       0x13 drivers/usb/gadget/built-in.o
 .rodata.__func__.8497
                0x00000000178501af        0xe common/built-in.o
 .rodata.__func__.8630
                0x00000000178501bd       0x10 drivers/net/built-in.o
 .rodata.__func__.8876
                0x00000000178501cd       0x18 common/built-in.o
 .rodata.__func__.9043
                0x00000000178501e5        0xe drivers/built-in.o
 .rodata.__func__.9379
                0x00000000178501f3        0xd drivers/built-in.o
 .rodata.__func__.9385
                0x0000000017850200       0x11 drivers/built-in.o
 .rodata.__func__.9397
                0x0000000017850211        0xd drivers/built-in.o
 .rodata.__func__.9661
                0x000000001785021e        0xc cmd/built-in.o
 .rodata.__func__.9666
                0x000000001785022a       0x12 drivers/i2c/built-in.o
 .rodata.__func__.9700
                0x000000001785023c        0xd drivers/i2c/built-in.o
 .rodata.__func__.9730
                0x0000000017850249       0x14 cmd/built-in.o
 .rodata.__func__.9745
                0x000000001785025d       0x12 drivers/i2c/built-in.o
 .rodata._ctype
                0x000000001785026f      0x100 lib/built-in.o
                0x000000001785026f                _ctype
 .rodata.bank_lookup
                0x000000001785036f        0x2 arch/arm/imx-common/built-in.o
 .rodata.col_lookup
                0x0000000017850371        0x8 arch/arm/imx-common/built-in.o
 .rodata.default_environment
                0x0000000017850379      0xbcd common/built-in.o
                0x0000000017850379                default_environment
 .rodata.dfu_func
                0x0000000017850f46        0x9 drivers/usb/gadget/built-in.o
 .rodata.dfu_name
                0x0000000017850f4f       0x18 drivers/usb/gadget/built-in.o
 .rodata.digits.7289
                0x0000000017850f67       0x10 lib/built-in.o
 .rodata.dirletter.8734
                0x0000000017850f77        0x4 drivers/usb/gadget/built-in.o
 .rodata.efi_block_io_guid
                0x0000000017850f7b       0x10 lib/built-in.o
 .rodata.efi_guid_console_control
                0x0000000017850f8b       0x10 lib/built-in.o
                0x0000000017850f8b                efi_guid_console_control
 .rodata.efi_guid_device_path
                0x0000000017850f9b       0x10 lib/built-in.o
                0x0000000017850f9b                efi_guid_device_path
 .rodata.efi_guid_loaded_image
                0x0000000017850fab       0x10 lib/built-in.o
                0x0000000017850fab                efi_guid_loaded_image
 .rodata.env_flags_varaccess_rep
                0x0000000017850fbb        0x5 common/built-in.o
 .rodata.env_flags_vartype_rep
                0x0000000017850fc0        0x7 common/built-in.o
 .rodata.erase_seq
                0x0000000017850fc7        0x4 common/built-in.o
 .rodata.fastboot_name
                0x0000000017850fcb       0x11 drivers/usb/gadget/built-in.o
 .rodata.fsg_string_interface
                0x0000000017850fdc        0xd drivers/usb/gadget/built-in.o
 .rodata.hex_asc
                0x0000000017850fe9       0x11 lib/built-in.o
 .rodata.manufacturer
                0x0000000017850ffa        0x4 drivers/usb/gadget/built-in.o
 .rodata.name.7615
                0x0000000017850ffe        0x9 drivers/power/pmic/built-in.o
 .rodata.names.7442
                0x0000000017851007        0x6 lib/built-in.o
 .rodata.net_bcast_ethaddr
                0x000000001785100d        0x6 net/built-in.o
                0x000000001785100d                net_bcast_ethaddr
 .rodata.product
                0x0000000017851013       0x14 drivers/usb/gadget/built-in.o
 .rodata.spi_read_cmds_array.9420
                0x0000000017851027        0x6 drivers/mtd/spi/built-in.o
 .rodata.str1.1
                0x000000001785102d      0x24c arch/arm/cpu/armv7/built-in.o
                                        0x256 (size before relaxing)
 .rodata.str1.1
                0x0000000017851279      0x280 arch/arm/imx-common/built-in.o
                                        0x2ad (size before relaxing)
 .rodata.str1.1
                0x00000000178514f9      0x380 arch/arm/lib/built-in.o
                                        0x42c (size before relaxing)
 .rodata.str1.1
                0x0000000017851879       0x6e board/freescale/common/built-in.o
 .rodata.str1.1
                0x00000000178518e7       0x8f board/freescale/mx6sabresd/built-in.o
 .rodata.str1.1
                0x0000000017851976     0x6765 cmd/built-in.o
                                       0x6d7c (size before relaxing)
 .rodata.str1.1
                0x00000000178580db     0x259a common/built-in.o
                                       0x2974 (size before relaxing)
 .rodata.str1.1
                0x000000001785a675      0x42d disk/built-in.o
                                        0x458 (size before relaxing)
 .rodata.str1.1
                0x000000001785aaa2      0xdc9 drivers/built-in.o
                                        0xe88 (size before relaxing)
 .rodata.str1.1
                0x000000001785b86b       0xdf drivers/i2c/built-in.o
 .rodata.str1.1
                0x000000001785b94a      0x483 drivers/mmc/built-in.o
                                        0x4ef (size before relaxing)
 .rodata.str1.1
                0x000000001785bdcd      0x12d drivers/mtd/built-in.o
 .rodata.str1.1
                0x000000001785befa      0x267 drivers/mtd/spi/built-in.o
                                        0x26a (size before relaxing)
 .rodata.str1.1
                0x000000001785c161      0x165 drivers/net/built-in.o
                                        0x16d (size before relaxing)
 .rodata.str1.1
                0x000000001785c2c6      0x153 drivers/net/phy/built-in.o
                                        0x169 (size before relaxing)
 .rodata.str1.1
                0x000000001785c419      0x28a drivers/pci/built-in.o
                                        0x28e (size before relaxing)
 .rodata.str1.1
                0x000000001785c6a3      0x257 drivers/power/built-in.o
                                        0x26f (size before relaxing)
 .rodata.str1.1
                0x000000001785c8fa       0x1d drivers/power/pmic/built-in.o
 .rodata.str1.1
                0x000000001785c917       0x57 drivers/serial/built-in.o
                                         0x92 (size before relaxing)
 .rodata.str1.1
                0x000000001785c96e       0xdc drivers/spi/built-in.o
 .rodata.str1.1
                0x000000001785ca4a       0xeb drivers/usb/eth/built-in.o
 .rodata.str1.1
                0x000000001785cb35      0x4fa drivers/usb/gadget/built-in.o
                                        0x57b (size before relaxing)
 .rodata.str1.1
                0x000000001785d02f      0x238 drivers/usb/host/built-in.o
 .rodata.str1.1
                0x000000001785d267      0x96f fs/built-in.o
                                        0x9fe (size before relaxing)
 .rodata.str1.1
                0x000000001785dbd6      0x7cb lib/built-in.o
                                        0x841 (size before relaxing)
 .rodata.str1.1
                0x000000001785e3a1      0x7d1 net/built-in.o
                                        0x94d (size before relaxing)
 .rodata.str1.1
                0x000000001785eb72       0xdc test/dm/built-in.o
                                         0xe2 (size before relaxing)
 .rodata.str1.1
                0x000000001785ec4e       0x1b arch/arm/lib/eabi_compat.o
 .rodata.tab_seq
                0x000000001785ec69        0x9 common/built-in.o
 .rodata.us_direction
                0x000000001785ec72       0x20 common/built-in.o
 .rodata.vendor_id.8585
                0x000000001785ec92        0x9 drivers/usb/gadget/built-in.o
 .rodata.version_string
                0x000000001785ec9b       0x2e cmd/built-in.o
                0x000000001785ec9b                version_string

.hash           0x000000001785eccc       0x2c
 .hash          0x000000001785eccc       0x2c arch/arm/cpu/armv7/start.o
                0x000000001785ecf8                . = ALIGN (0x4)

.data           0x000000001785ecf8     0xf4e4
 *(.data*)
 .data.imx_ccm  0x000000001785ecf8        0x4 arch/arm/cpu/armv7/built-in.o
                0x000000001785ecf8                imx_ccm
 .data.reset_cause
                0x000000001785ecfc        0x4 arch/arm/imx-common/built-in.o
 .data.i2c_pad_info1
                0x000000001785ed00       0x30 board/freescale/mx6sabresd/built-in.o
 .data.usdhc_cfg
                0x000000001785ed30       0x84 board/freescale/mx6sabresd/built-in.o
                0x000000001785ed30                usdhc_cfg
 .data.display_count
                0x000000001785edb4        0x4 board/freescale/mx6sabresd/built-in.o
                0x000000001785edb4                display_count
 .data.bootm_help_text
                0x000000001785edb8      0x38b cmd/built-in.o
 *fill*         0x000000001785f143        0x1 
 .data.cmd_bootm_sub
                0x000000001785f144       0xfc cmd/built-in.o
 .data.bootz_help_text
                0x000000001785f240      0x208 cmd/built-in.o
 .data.source_help_text
                0x000000001785f448       0x4e cmd/built-in.o
 .data.bootefi_device_path
                0x000000001785f496       0x88 cmd/built-in.o
 *fill*         0x000000001785f51e        0x2 
 .data.loaded_image_info_obj
                0x000000001785f520       0x2c cmd/built-in.o
 .data.bootefi_image_path
                0x000000001785f54c       0x88 cmd/built-in.o
 .data.bootefi_help_text
                0x000000001785f5d4       0xbf cmd/built-in.o
 *fill*         0x000000001785f693        0x1 
 .data.bootefi_device_obj
                0x000000001785f694       0x2c cmd/built-in.o
 .data.loaded_image_info
                0x000000001785f6c0       0x40 cmd/built-in.o
 .data.root.8516
                0x000000001785f700        0x2 cmd/built-in.o
 .data.tabs.8599
                0x000000001785f702       0x21 cmd/built-in.o
 .data.fdt_help_text
                0x000000001785f723      0x5e4 cmd/built-in.o
 .data.i2c_help_text
                0x000000001785fd07      0x37c cmd/built-in.o
 *fill*         0x0000000017860083        0x1 
 .data.cmd_i2c_sub
                0x0000000017860084      0x16c cmd/built-in.o
 .data.i2c_dp_last_length
                0x00000000178601f0        0x4 cmd/built-in.o
 .data.do_echo  0x00000000178601f4        0x4 cmd/built-in.o
 .data.dp_last_length
                0x00000000178601f8        0x4 cmd/built-in.o
 .data.curr_device
                0x00000000178601fc        0x4 cmd/built-in.o
 .data.cmd_mmc  0x0000000017860200      0x188 cmd/built-in.o
 .data.cpu_help_text
                0x0000000017860388      0x117 cmd/built-in.o
 *fill*         0x000000001786049f        0x1 
 .data.regs_start
                0x00000000178604a0       0x48 cmd/built-in.o
 .data.regs_cardbus
                0x00000000178604e8      0x12c cmd/built-in.o
 .data.pci_help_text
                0x0000000017860614      0x1cb cmd/built-in.o
 *fill*         0x00000000178607df        0x1 
 .data.regs_bridge
                0x00000000178607e0       0xfc cmd/built-in.o
 .data.regs_rest
                0x00000000178608dc       0x60 cmd/built-in.o
 .data.regs_normal
                0x000000001786093c       0xa8 cmd/built-in.o
 .data.usb_ether_curr_dev
                0x00000000178609e4        0x4 cmd/built-in.o
 .data.usb_stor_curr_dev
                0x00000000178609e8        0x4 cmd/built-in.o
 .data.imgextract_help_text
                0x00000000178609ec       0x55 cmd/built-in.o
 .data.env_help_text
                0x0000000017860a41      0x24f cmd/built-in.o
 .data.env_id   0x0000000017860c90        0x4 cmd/built-in.o
 .data.cmd_env_sub
                0x0000000017860c94      0x118 cmd/built-in.o
 .data.hash_algo
                0x0000000017860dac       0x1c common/built-in.o
 .data.reserved_list
                0x0000000017860dc8       0x84 common/built-in.o
 .data.init_sequence_f
                0x0000000017860e4c       0xa0 common/built-in.o
 .data.init_sequence_r
                0x0000000017860eec       0x74 common/built-in.o
                0x0000000017860eec                init_sequence_r
 .data.first_call
                0x0000000017860f60        0x8 common/built-in.o
 .data.env_name_spec
                0x0000000017860f68        0x4 common/built-in.o
                0x0000000017860f68                env_name_spec
 .data.usb_scan_list
                0x0000000017860f6c        0x8 common/built-in.o
 .data.env_htab
                0x0000000017860f74       0x10 common/built-in.o
                0x0000000017860f74                env_htab
 .data.av_      0x0000000017860f84      0x408 common/built-in.o
 .data.sbrk_base
                0x000000001786138c        0x4 common/built-in.o
 .data.trim_threshold
                0x0000000017861390        0x4 common/built-in.o
 .data.load_addr
                0x0000000017861394        0x4 common/built-in.o
                0x0000000017861394                load_addr
 .data.stdio_names
                0x0000000017861398        0xc common/built-in.o
                0x0000000017861398                stdio_names
 .data.hist_cur
                0x00000000178613a4        0x4 common/built-in.o
 .data.dfu_list
                0x00000000178613a8        0x8 drivers/built-in.o
 .data.video_logo_height
                0x00000000178613b0        0x4 drivers/built-in.o
 .data.nl.8720  0x00000000178613b4        0x4 drivers/built-in.o
 .data.bmp_logo_bitmap
                0x00000000178613b8     0xb600 drivers/built-in.o
                0x00000000178613b8                bmp_logo_bitmap
 .data.video_fontdata
                0x000000001786c9b8     0x1000 drivers/built-in.o
 .data.bmp_logo_palette
                0x000000001786d9b8       0x2e drivers/built-in.o
                0x000000001786d9b8                bmp_logo_palette
 *fill*         0x000000001786d9e6        0x2 
 .data.ldb_clk  0x000000001786d9e8       0x38 drivers/built-in.o
 .data.ipu_clk  0x000000001786da20       0x38 drivers/built-in.o
 .data.pixel_clk
                0x000000001786da58       0x70 drivers/built-in.o
 .data.bg_csc_type
                0x000000001786dac8        0x4 drivers/built-in.o
 .data.fg_csc_type
                0x000000001786dacc        0x4 drivers/built-in.o
 .data.color_key_4rgb
                0x000000001786dad0        0x4 drivers/built-in.o
 .data.mxc_i2c_buses
                0x000000001786dad4       0x70 drivers/i2c/built-in.o
 .data.cur_dev_num
                0x000000001786db44        0x4 drivers/mmc/built-in.o
 .data.genphy_driver
                0x000000001786db48       0x34 drivers/net/phy/built-in.o
 .data.phy_drivers
                0x000000001786db7c        0x8 drivers/net/phy/built-in.o
 .data.AR8021_driver
                0x000000001786db84       0x34 drivers/net/phy/built-in.o
 .data.AR8031_driver
                0x000000001786dbb8       0x34 drivers/net/phy/built-in.o
 .data.AR8035_driver
                0x000000001786dbec       0x34 drivers/net/phy/built-in.o
 .data.pmic_list
                0x000000001786dc20        0x8 drivers/power/built-in.o
 .data.mxc_serial_drv
                0x000000001786dc28       0x30 drivers/serial/built-in.o
 .data.ep0_desc
                0x000000001786dc58        0x9 drivers/usb/gadget/built-in.o
 *fill*         0x000000001786dc61        0x3 
 .data.ci_ep_ops
                0x000000001786dc64       0x28 drivers/usb/gadget/built-in.o
 .data.ci_udc_ops
                0x000000001786dc8c       0x24 drivers/usb/gadget/built-in.o
 .data.controller
                0x000000001786dcb0      0x190 drivers/usb/gadget/built-in.o
 .data.device_desc
                0x000000001786de40       0x12 drivers/usb/gadget/built-in.o
 *fill*         0x000000001786de52        0x2 
 .data.g_dnl_string_tab
                0x000000001786de54        0x8 drivers/usb/gadget/built-in.o
 .data.g_dnl_composite_strings
                0x000000001786de5c        0x8 drivers/usb/gadget/built-in.o
 .data.g_dnl_driver
                0x000000001786de64       0x20 drivers/usb/gadget/built-in.o
 .data.composite_driver
                0x000000001786de84       0x24 drivers/usb/gadget/built-in.o
 .data.g_dnl_string_defs
                0x000000001786dea8       0x20 drivers/usb/gadget/built-in.o
 .data.dfu_strings
                0x000000001786dec8        0x8 drivers/usb/gadget/built-in.o
 .data.dfu_intf_runtime
                0x000000001786ded0        0x9 drivers/usb/gadget/built-in.o
 *fill*         0x000000001786ded9        0x3 
 .data.stringtab_dfu
                0x000000001786dedc        0x8 drivers/usb/gadget/built-in.o
 .data.dfu_generic_strings
                0x000000001786dee4        0x8 drivers/usb/gadget/built-in.o
 .data.dfu_runtime_descs
                0x000000001786deec        0x8 drivers/usb/gadget/built-in.o
 .data.stringtab_dfu_generic
                0x000000001786def4        0x8 drivers/usb/gadget/built-in.o
 .data.strings_dfu_generic
                0x000000001786defc       0x10 drivers/usb/gadget/built-in.o
 .data.fsg_fs_bulk_in_desc
                0x000000001786df0c        0x9 drivers/usb/gadget/built-in.o
 .data.fsg_hs_bulk_out_desc
                0x000000001786df15        0x9 drivers/usb/gadget/built-in.o
 .data.fsg_fs_bulk_out_desc
                0x000000001786df1e        0x9 drivers/usb/gadget/built-in.o
 .data.fsg_intf_desc
                0x000000001786df27        0x9 drivers/usb/gadget/built-in.o
 .data.fsg_stringtab
                0x000000001786df30        0x8 drivers/usb/gadget/built-in.o
 .data.fsg_fs_function
                0x000000001786df38       0x10 drivers/usb/gadget/built-in.o
 .data.fsg_hs_function
                0x000000001786df48       0x10 drivers/usb/gadget/built-in.o
 .data.fsg_strings
                0x000000001786df58       0x10 drivers/usb/gadget/built-in.o
 .data.fsg_hs_bulk_in_desc
                0x000000001786df68        0x9 drivers/usb/gadget/built-in.o
 *fill*         0x000000001786df71        0x3 
 .data.fsg_strings_array
                0x000000001786df74        0x8 drivers/usb/gadget/built-in.o
 .data.fb_fs_function
                0x000000001786df7c        0xc drivers/usb/gadget/built-in.o
 .data.interface_desc
                0x000000001786df88        0x9 drivers/usb/gadget/built-in.o
 *fill*         0x000000001786df91        0x3 
 .data.fastboot_string_defs
                0x000000001786df94       0x10 drivers/usb/gadget/built-in.o
 .data.fastboot_strings
                0x000000001786dfa4        0x8 drivers/usb/gadget/built-in.o
 .data.hs_ep_out
                0x000000001786dfac        0x9 drivers/usb/gadget/built-in.o
 .data.fs_ep_out
                0x000000001786dfb5        0x9 drivers/usb/gadget/built-in.o
 .data.fs_ep_in
                0x000000001786dfbe        0x9 drivers/usb/gadget/built-in.o
 *fill*         0x000000001786dfc7        0x1 
 .data.stringtab_fastboot
                0x000000001786dfc8        0x8 drivers/usb/gadget/built-in.o
 .data.fb_hs_function
                0x000000001786dfd0       0x10 drivers/usb/gadget/built-in.o
 .data.hs_ep_in
                0x000000001786dfe0        0x9 drivers/usb/gadget/built-in.o
 .data.descriptor
                0x000000001786dfe9       0x38 drivers/usb/host/built-in.o
 *fill*         0x000000001786e021        0x3 
 .data.fstypes  0x000000001786e024       0x84 fs/built-in.o
 .data.ext4fs_indir3_blkno
                0x000000001786e0a8        0x4 fs/built-in.o
                0x000000001786e0a8                ext4fs_indir3_blkno
 .data.prev_inode_bitmap_index.7996
                0x000000001786e0ac        0x4 fs/built-in.o
 .data.prev_bg_bitmap_index.7977
                0x000000001786e0b0        0x4 fs/built-in.o
 .data.ext4fs_indir1_blkno
                0x000000001786e0b4        0x4 fs/built-in.o
                0x000000001786e0b4                ext4fs_indir1_blkno
 .data.ext4fs_indir2_blkno
                0x000000001786e0b8        0x4 fs/built-in.o
                0x000000001786e0b8                ext4fs_indir2_blkno
 .data.prev_bg_bmap_idx.7698
                0x000000001786e0bc        0x4 fs/built-in.o
 .data.prev_bg_bmap_idx.7764
                0x000000001786e0c0        0x4 fs/built-in.o
 .data.prev_bg_bmap_idx.7712
                0x000000001786e0c4        0x4 fs/built-in.o
 .data.prev_bg_bmap_idx.7732
                0x000000001786e0c8        0x4 fs/built-in.o
 .data.first_node
                0x000000001786e0cc        0x4 fs/built-in.o
 .data.loaded_image_info_obj.8221
                0x000000001786e0d0       0x2c lib/built-in.o
 *fill*         0x000000001786e0fc        0x4 
 .data.efi_event
                0x000000001786e100       0x28 lib/built-in.o
 .data.efi_class_maps
                0x000000001786e128        0x8 lib/built-in.o
 .data.efi_is_direct_boot
                0x000000001786e130        0x1 lib/built-in.o
 *fill*         0x000000001786e131        0x3 
 .data.efi_obj_list
                0x000000001786e134        0x8 lib/built-in.o
                0x000000001786e134                efi_obj_list
 .data.lastoff.9689
                0x000000001786e13c        0x4 lib/built-in.o
 .data.console_columns
                0x000000001786e140        0x4 lib/built-in.o
 .data.console_rows
                0x000000001786e144        0x4 lib/built-in.o
 .data.efi_con_mode
                0x000000001786e148       0x18 lib/built-in.o
 .data.efi_mem  0x000000001786e160        0x8 lib/built-in.o
                0x000000001786e160                efi_mem
 .data.first_call.7815
                0x000000001786e168        0x4 net/built-in.o
 .data.net_native_vlan
                0x000000001786e16c        0x2 net/built-in.o
                0x000000001786e16c                net_native_vlan
 .data.net_our_vlan
                0x000000001786e16e        0x2 net/built-in.o
                0x000000001786e16e                net_our_vlan
 .data.nfs_offset
                0x000000001786e170        0x4 net/built-in.o
 .data.tftp_block_size_option
                0x000000001786e174        0x2 net/built-in.o
 *fill*         0x000000001786e176        0x2 
 .data.tftp_timeout_count_max
                0x000000001786e178        0x4 net/built-in.o
                0x000000001786e178                tftp_timeout_count_max
 .data.timeout_ms
                0x000000001786e17c        0x4 net/built-in.o
 .data.tftp_block_size
                0x000000001786e180        0x2 net/built-in.o
 *fill*         0x000000001786e182        0x2 
 .data.timeout_count_max
                0x000000001786e184        0x4 net/built-in.o
 .data.test_commands
                0x000000001786e188       0x54 test/dm/built-in.o

.got            0x000000001786e1dc        0x0
 .got           0x0000000000000000        0x0 arch/arm/cpu/armv7/start.o

.got.plt        0x000000001786e1dc        0xc
 .got.plt       0x000000001786e1dc        0xc arch/arm/cpu/armv7/start.o
                0x000000001786e1dc                _GLOBAL_OFFSET_TABLE_

.igot.plt       0x000000001786e1e8        0x0
 .igot.plt      0x0000000000000000        0x0 arch/arm/cpu/armv7/start.o
                0x000000001786e1e8                . = ALIGN (0x4)
                0x000000001786e1e8                . = .
                0x000000001786e1e8                . = ALIGN (0x4)

.u_boot_list    0x000000001786e1e8      0xc08
 *(SORT(.u_boot_list*))
 .u_boot_list_2_blk_driver_1
                0x000000001786e1e8        0x0 drivers/built-in.o
 .u_boot_list_2_blk_driver_2_mmc
                0x000000001786e1e8       0x18 drivers/mmc/built-in.o
                0x000000001786e1e8                _u_boot_list_2_blk_driver_2_mmc
 .u_boot_list_2_blk_driver_2_usb
                0x000000001786e200       0x18 common/built-in.o
                0x000000001786e200                _u_boot_list_2_blk_driver_2_usb
 .u_boot_list_2_blk_driver_3
                0x000000001786e218        0x0 drivers/built-in.o
 .u_boot_list_2_cmd_1
                0x000000001786e218        0x0 cmd/built-in.o
 .u_boot_list_2_cmd_1
                0x000000001786e218        0x0 common/built-in.o
 .u_boot_list_2_cmd_2_base
                0x000000001786e218       0x1c cmd/built-in.o
                0x000000001786e218                _u_boot_list_2_cmd_2_base
 .u_boot_list_2_cmd_2_bdinfo
                0x000000001786e234       0x1c cmd/built-in.o
                0x000000001786e234                _u_boot_list_2_cmd_2_bdinfo
 .u_boot_list_2_cmd_2_bmode
                0x000000001786e250       0x1c arch/arm/imx-common/built-in.o
                0x000000001786e250                _u_boot_list_2_cmd_2_bmode
 .u_boot_list_2_cmd_2_boot
                0x000000001786e26c       0x1c cmd/built-in.o
                0x000000001786e26c                _u_boot_list_2_cmd_2_boot
 .u_boot_list_2_cmd_2_bootd
                0x000000001786e288       0x1c cmd/built-in.o
                0x000000001786e288                _u_boot_list_2_cmd_2_bootd
 .u_boot_list_2_cmd_2_bootefi
                0x000000001786e2a4       0x1c cmd/built-in.o
                0x000000001786e2a4                _u_boot_list_2_cmd_2_bootefi
 .u_boot_list_2_cmd_2_bootelf
                0x000000001786e2c0       0x1c cmd/built-in.o
                0x000000001786e2c0                _u_boot_list_2_cmd_2_bootelf
 .u_boot_list_2_cmd_2_bootm
                0x000000001786e2dc       0x1c cmd/built-in.o
                0x000000001786e2dc                _u_boot_list_2_cmd_2_bootm
 .u_boot_list_2_cmd_2_bootp
                0x000000001786e2f8       0x1c cmd/built-in.o
                0x000000001786e2f8                _u_boot_list_2_cmd_2_bootp
 .u_boot_list_2_cmd_2_bootvx
                0x000000001786e314       0x1c cmd/built-in.o
                0x000000001786e314                _u_boot_list_2_cmd_2_bootvx
 .u_boot_list_2_cmd_2_bootz
                0x000000001786e330       0x1c cmd/built-in.o
                0x000000001786e330                _u_boot_list_2_cmd_2_bootz
 .u_boot_list_2_cmd_2_clocks
                0x000000001786e34c       0x1c arch/arm/cpu/armv7/built-in.o
                0x000000001786e34c                _u_boot_list_2_cmd_2_clocks
 .u_boot_list_2_cmd_2_clrlogo
                0x000000001786e368       0x1c drivers/built-in.o
                0x000000001786e368                _u_boot_list_2_cmd_2_clrlogo
 .u_boot_list_2_cmd_2_cmp
                0x000000001786e384       0x1c cmd/built-in.o
                0x000000001786e384                _u_boot_list_2_cmd_2_cmp
 .u_boot_list_2_cmd_2_coninfo
                0x000000001786e3a0       0x1c cmd/built-in.o
                0x000000001786e3a0                _u_boot_list_2_cmd_2_coninfo
 .u_boot_list_2_cmd_2_cp
                0x000000001786e3bc       0x1c cmd/built-in.o
                0x000000001786e3bc                _u_boot_list_2_cmd_2_cp
 .u_boot_list_2_cmd_2_cpu
                0x000000001786e3d8       0x1c cmd/built-in.o
                0x000000001786e3d8                _u_boot_list_2_cmd_2_cpu
 .u_boot_list_2_cmd_2_crc32
                0x000000001786e3f4       0x1c cmd/built-in.o
                0x000000001786e3f4                _u_boot_list_2_cmd_2_crc32
 .u_boot_list_2_cmd_2_dcache
                0x000000001786e410       0x1c cmd/built-in.o
                0x000000001786e410                _u_boot_list_2_cmd_2_dcache
 .u_boot_list_2_cmd_2_dfu
                0x000000001786e42c       0x1c cmd/built-in.o
                0x000000001786e42c                _u_boot_list_2_cmd_2_dfu
 .u_boot_list_2_cmd_2_dhcp
                0x000000001786e448       0x1c cmd/built-in.o
                0x000000001786e448                _u_boot_list_2_cmd_2_dhcp
 .u_boot_list_2_cmd_2_dm
                0x000000001786e464       0x1c test/dm/built-in.o
                0x000000001786e464                _u_boot_list_2_cmd_2_dm
 .u_boot_list_2_cmd_2_echo
                0x000000001786e480       0x1c cmd/built-in.o
                0x000000001786e480                _u_boot_list_2_cmd_2_echo
 .u_boot_list_2_cmd_2_editenv
                0x000000001786e49c       0x1c cmd/built-in.o
                0x000000001786e49c                _u_boot_list_2_cmd_2_editenv
 .u_boot_list_2_cmd_2_env
                0x000000001786e4b8       0x1c cmd/built-in.o
                0x000000001786e4b8                _u_boot_list_2_cmd_2_env
 .u_boot_list_2_cmd_2_exit
                0x000000001786e4d4       0x1c cmd/built-in.o
                0x000000001786e4d4                _u_boot_list_2_cmd_2_exit
 .u_boot_list_2_cmd_2_ext2load
                0x000000001786e4f0       0x1c cmd/built-in.o
                0x000000001786e4f0                _u_boot_list_2_cmd_2_ext2load
 .u_boot_list_2_cmd_2_ext2ls
                0x000000001786e50c       0x1c cmd/built-in.o
                0x000000001786e50c                _u_boot_list_2_cmd_2_ext2ls
 .u_boot_list_2_cmd_2_ext4load
                0x000000001786e528       0x1c cmd/built-in.o
                0x000000001786e528                _u_boot_list_2_cmd_2_ext4load
 .u_boot_list_2_cmd_2_ext4ls
                0x000000001786e544       0x1c cmd/built-in.o
                0x000000001786e544                _u_boot_list_2_cmd_2_ext4ls
 .u_boot_list_2_cmd_2_ext4size
                0x000000001786e560       0x1c cmd/built-in.o
                0x000000001786e560                _u_boot_list_2_cmd_2_ext4size
 .u_boot_list_2_cmd_2_ext4write
                0x000000001786e57c       0x1c cmd/built-in.o
                0x000000001786e57c                _u_boot_list_2_cmd_2_ext4write
 .u_boot_list_2_cmd_2_false
                0x000000001786e598       0x1c cmd/built-in.o
                0x000000001786e598                _u_boot_list_2_cmd_2_false
 .u_boot_list_2_cmd_2_fastboot
                0x000000001786e5b4       0x1c cmd/built-in.o
                0x000000001786e5b4                _u_boot_list_2_cmd_2_fastboot
 .u_boot_list_2_cmd_2_fatinfo
                0x000000001786e5d0       0x1c cmd/built-in.o
                0x000000001786e5d0                _u_boot_list_2_cmd_2_fatinfo
 .u_boot_list_2_cmd_2_fatload
                0x000000001786e5ec       0x1c cmd/built-in.o
                0x000000001786e5ec                _u_boot_list_2_cmd_2_fatload
 .u_boot_list_2_cmd_2_fatls
                0x000000001786e608       0x1c cmd/built-in.o
                0x000000001786e608                _u_boot_list_2_cmd_2_fatls
 .u_boot_list_2_cmd_2_fatsize
                0x000000001786e624       0x1c cmd/built-in.o
                0x000000001786e624                _u_boot_list_2_cmd_2_fatsize
 .u_boot_list_2_cmd_2_fdt
                0x000000001786e640       0x1c cmd/built-in.o
                0x000000001786e640                _u_boot_list_2_cmd_2_fdt
 .u_boot_list_2_cmd_2_fstype
                0x000000001786e65c       0x1c cmd/built-in.o
                0x000000001786e65c                _u_boot_list_2_cmd_2_fstype
 .u_boot_list_2_cmd_2_fuse
                0x000000001786e678       0x1c cmd/built-in.o
                0x000000001786e678                _u_boot_list_2_cmd_2_fuse
 .u_boot_list_2_cmd_2_go
                0x000000001786e694       0x1c cmd/built-in.o
                0x000000001786e694                _u_boot_list_2_cmd_2_go
 .u_boot_list_2_cmd_2_gpio
                0x000000001786e6b0       0x1c cmd/built-in.o
                0x000000001786e6b0                _u_boot_list_2_cmd_2_gpio
 .u_boot_list_2_cmd_2_help
                0x000000001786e6cc       0x1c cmd/built-in.o
                0x000000001786e6cc                _u_boot_list_2_cmd_2_help
 .u_boot_list_2_cmd_2_i2c
                0x000000001786e6e8       0x1c cmd/built-in.o
                0x000000001786e6e8                _u_boot_list_2_cmd_2_i2c
 .u_boot_list_2_cmd_2_icache
                0x000000001786e704       0x1c cmd/built-in.o
                0x000000001786e704                _u_boot_list_2_cmd_2_icache
 .u_boot_list_2_cmd_2_iminfo
                0x000000001786e720       0x1c cmd/built-in.o
                0x000000001786e720                _u_boot_list_2_cmd_2_iminfo
 .u_boot_list_2_cmd_2_imxtract
                0x000000001786e73c       0x1c cmd/built-in.o
                0x000000001786e73c                _u_boot_list_2_cmd_2_imxtract
 .u_boot_list_2_cmd_2_itest
                0x000000001786e758       0x1c cmd/built-in.o
                0x000000001786e758                _u_boot_list_2_cmd_2_itest
 .u_boot_list_2_cmd_2_load
                0x000000001786e774       0x1c cmd/built-in.o
                0x000000001786e774                _u_boot_list_2_cmd_2_load
 .u_boot_list_2_cmd_2_loadb
                0x000000001786e790       0x1c cmd/built-in.o
                0x000000001786e790                _u_boot_list_2_cmd_2_loadb
 .u_boot_list_2_cmd_2_loads
                0x000000001786e7ac       0x1c cmd/built-in.o
                0x000000001786e7ac                _u_boot_list_2_cmd_2_loads
 .u_boot_list_2_cmd_2_loadx
                0x000000001786e7c8       0x1c cmd/built-in.o
                0x000000001786e7c8                _u_boot_list_2_cmd_2_loadx
 .u_boot_list_2_cmd_2_loady
                0x000000001786e7e4       0x1c cmd/built-in.o
                0x000000001786e7e4                _u_boot_list_2_cmd_2_loady
 .u_boot_list_2_cmd_2_loop
                0x000000001786e800       0x1c cmd/built-in.o
                0x000000001786e800                _u_boot_list_2_cmd_2_loop
 .u_boot_list_2_cmd_2_ls
                0x000000001786e81c       0x1c cmd/built-in.o
                0x000000001786e81c                _u_boot_list_2_cmd_2_ls
 .u_boot_list_2_cmd_2_md
                0x000000001786e838       0x1c cmd/built-in.o
                0x000000001786e838                _u_boot_list_2_cmd_2_md
 .u_boot_list_2_cmd_2_mdio
                0x000000001786e854       0x1c cmd/built-in.o
                0x000000001786e854                _u_boot_list_2_cmd_2_mdio
 .u_boot_list_2_cmd_2_mii
                0x000000001786e870       0x1c cmd/built-in.o
                0x000000001786e870                _u_boot_list_2_cmd_2_mii
 .u_boot_list_2_cmd_2_mm
                0x000000001786e88c       0x1c cmd/built-in.o
                0x000000001786e88c                _u_boot_list_2_cmd_2_mm
 .u_boot_list_2_cmd_2_mmc
                0x000000001786e8a8       0x1c cmd/built-in.o
                0x000000001786e8a8                _u_boot_list_2_cmd_2_mmc
 .u_boot_list_2_cmd_2_mmcinfo
                0x000000001786e8c4       0x1c cmd/built-in.o
                0x000000001786e8c4                _u_boot_list_2_cmd_2_mmcinfo
 .u_boot_list_2_cmd_2_mw
                0x000000001786e8e0       0x1c cmd/built-in.o
                0x000000001786e8e0                _u_boot_list_2_cmd_2_mw
 .u_boot_list_2_cmd_2_nfs
                0x000000001786e8fc       0x1c cmd/built-in.o
                0x000000001786e8fc                _u_boot_list_2_cmd_2_nfs
 .u_boot_list_2_cmd_2_nm
                0x000000001786e918       0x1c cmd/built-in.o
                0x000000001786e918                _u_boot_list_2_cmd_2_nm
 .u_boot_list_2_cmd_2_pci
                0x000000001786e934       0x1c cmd/built-in.o
                0x000000001786e934                _u_boot_list_2_cmd_2_pci
 .u_boot_list_2_cmd_2_ping
                0x000000001786e950       0x1c cmd/built-in.o
                0x000000001786e950                _u_boot_list_2_cmd_2_ping
 .u_boot_list_2_cmd_2_pmic
                0x000000001786e96c       0x1c drivers/power/built-in.o
                0x000000001786e96c                _u_boot_list_2_cmd_2_pmic
 .u_boot_list_2_cmd_2_printenv
                0x000000001786e988       0x1c cmd/built-in.o
                0x000000001786e988                _u_boot_list_2_cmd_2_printenv
 .u_boot_list_2_cmd_2_question_mark
                0x000000001786e9a4       0x1c cmd/built-in.o
                0x000000001786e9a4                _u_boot_list_2_cmd_2_question_mark
 .u_boot_list_2_cmd_2_reset
                0x000000001786e9c0       0x1c cmd/built-in.o
                0x000000001786e9c0                _u_boot_list_2_cmd_2_reset
 .u_boot_list_2_cmd_2_run
                0x000000001786e9dc       0x1c cmd/built-in.o
                0x000000001786e9dc                _u_boot_list_2_cmd_2_run
 .u_boot_list_2_cmd_2_save
                0x000000001786e9f8       0x1c cmd/built-in.o
                0x000000001786e9f8                _u_boot_list_2_cmd_2_save
 .u_boot_list_2_cmd_2_saveenv
                0x000000001786ea14       0x1c cmd/built-in.o
                0x000000001786ea14                _u_boot_list_2_cmd_2_saveenv
 .u_boot_list_2_cmd_2_setenv
                0x000000001786ea30       0x1c cmd/built-in.o
                0x000000001786ea30                _u_boot_list_2_cmd_2_setenv
 .u_boot_list_2_cmd_2_setexpr
                0x000000001786ea4c       0x1c cmd/built-in.o
                0x000000001786ea4c                _u_boot_list_2_cmd_2_setexpr
 .u_boot_list_2_cmd_2_sf
                0x000000001786ea68       0x1c cmd/built-in.o
                0x000000001786ea68                _u_boot_list_2_cmd_2_sf
 .u_boot_list_2_cmd_2_showvar
                0x000000001786ea84       0x1c common/built-in.o
                0x000000001786ea84                _u_boot_list_2_cmd_2_showvar
 .u_boot_list_2_cmd_2_size
                0x000000001786eaa0       0x1c cmd/built-in.o
                0x000000001786eaa0                _u_boot_list_2_cmd_2_size
 .u_boot_list_2_cmd_2_sleep
                0x000000001786eabc       0x1c cmd/built-in.o
                0x000000001786eabc                _u_boot_list_2_cmd_2_sleep
 .u_boot_list_2_cmd_2_source
                0x000000001786ead8       0x1c cmd/built-in.o
                0x000000001786ead8                _u_boot_list_2_cmd_2_source
 .u_boot_list_2_cmd_2_test
                0x000000001786eaf4       0x1c cmd/built-in.o
                0x000000001786eaf4                _u_boot_list_2_cmd_2_test
 .u_boot_list_2_cmd_2_tftpboot
                0x000000001786eb10       0x1c cmd/built-in.o
                0x000000001786eb10                _u_boot_list_2_cmd_2_tftpboot
 .u_boot_list_2_cmd_2_true
                0x000000001786eb2c       0x1c cmd/built-in.o
                0x000000001786eb2c                _u_boot_list_2_cmd_2_true
 .u_boot_list_2_cmd_2_ums
                0x000000001786eb48       0x1c cmd/built-in.o
                0x000000001786eb48                _u_boot_list_2_cmd_2_ums
 .u_boot_list_2_cmd_2_usb
                0x000000001786eb64       0x1c cmd/built-in.o
                0x000000001786eb64                _u_boot_list_2_cmd_2_usb
 .u_boot_list_2_cmd_2_usbboot
                0x000000001786eb80       0x1c cmd/built-in.o
                0x000000001786eb80                _u_boot_list_2_cmd_2_usbboot
 .u_boot_list_2_cmd_2_version
                0x000000001786eb9c       0x1c cmd/built-in.o
                0x000000001786eb9c                _u_boot_list_2_cmd_2_version
 .u_boot_list_2_cmd_3
                0x000000001786ebb8        0x0 cmd/built-in.o
 .u_boot_list_2_cmd_3
                0x000000001786ebb8        0x0 common/built-in.o
 .u_boot_list_2_driver_1
                0x000000001786ebb8        0x0 drivers/built-in.o
 .u_boot_list_2_driver_2_imx_thermal
                0x000000001786ebb8       0x44 drivers/built-in.o
                0x000000001786ebb8                _u_boot_list_2_driver_2_imx_thermal
 .u_boot_list_2_driver_2_root_driver
                0x000000001786ebfc       0x44 drivers/built-in.o
                0x000000001786ebfc                _u_boot_list_2_driver_2_root_driver
 .u_boot_list_2_driver_3
                0x000000001786ec40        0x0 drivers/built-in.o
 .u_boot_list_2_driver_info_1
                0x000000001786ec40        0x0 drivers/built-in.o
 .u_boot_list_2_driver_info_2_imx6_thermal
                0x000000001786ec40        0x8 arch/arm/cpu/armv7/built-in.o
                0x000000001786ec40                _u_boot_list_2_driver_info_2_imx6_thermal
 .u_boot_list_2_driver_info_3
                0x000000001786ec48        0x0 drivers/built-in.o
 .u_boot_list_2_env_clbk_1
                0x000000001786ec48        0x0 common/built-in.o
 .u_boot_list_2_env_clbk_2_baudrate
                0x000000001786ec48        0x8 drivers/serial/built-in.o
                0x000000001786ec48                _u_boot_list_2_env_clbk_2_baudrate
 .u_boot_list_2_env_clbk_2_bootfile
                0x000000001786ec50        0x8 net/built-in.o
                0x000000001786ec50                _u_boot_list_2_env_clbk_2_bootfile
 .u_boot_list_2_env_clbk_2_callbacks
                0x000000001786ec58        0x8 common/built-in.o
                0x000000001786ec58                _u_boot_list_2_env_clbk_2_callbacks
 .u_boot_list_2_env_clbk_2_console
                0x000000001786ec60        0x8 common/built-in.o
                0x000000001786ec60                _u_boot_list_2_env_clbk_2_console
 .u_boot_list_2_env_clbk_2_ethaddr
                0x000000001786ec68        0x8 net/built-in.o
                0x000000001786ec68                _u_boot_list_2_env_clbk_2_ethaddr
 .u_boot_list_2_env_clbk_2_flags
                0x000000001786ec70        0x8 common/built-in.o
                0x000000001786ec70                _u_boot_list_2_env_clbk_2_flags
 .u_boot_list_2_env_clbk_2_gatewayip
                0x000000001786ec78        0x8 net/built-in.o
                0x000000001786ec78                _u_boot_list_2_env_clbk_2_gatewayip
 .u_boot_list_2_env_clbk_2_ipaddr
                0x000000001786ec80        0x8 net/built-in.o
                0x000000001786ec80                _u_boot_list_2_env_clbk_2_ipaddr
 .u_boot_list_2_env_clbk_2_loadaddr
                0x000000001786ec88        0x8 common/built-in.o
                0x000000001786ec88                _u_boot_list_2_env_clbk_2_loadaddr
 .u_boot_list_2_env_clbk_2_netmask
                0x000000001786ec90        0x8 net/built-in.o
                0x000000001786ec90                _u_boot_list_2_env_clbk_2_netmask
 .u_boot_list_2_env_clbk_2_nvlan
                0x000000001786ec98        0x8 net/built-in.o
                0x000000001786ec98                _u_boot_list_2_env_clbk_2_nvlan
 .u_boot_list_2_env_clbk_2_serverip
                0x000000001786eca0        0x8 net/built-in.o
                0x000000001786eca0                _u_boot_list_2_env_clbk_2_serverip
 .u_boot_list_2_env_clbk_2_vlan
                0x000000001786eca8        0x8 net/built-in.o
                0x000000001786eca8                _u_boot_list_2_env_clbk_2_vlan
 .u_boot_list_2_env_clbk_3
                0x000000001786ecb0        0x0 common/built-in.o
 .u_boot_list_2_g_dnl_bind_callbacks_1
                0x000000001786ecb0        0x0 drivers/usb/gadget/built-in.o
 .u_boot_list_2_g_dnl_bind_callbacks_2___usb_function_name_usb_dnl_dfu
                0x000000001786ecb0        0x8 drivers/usb/gadget/built-in.o
                0x000000001786ecb0                _u_boot_list_2_g_dnl_bind_callbacks_2___usb_function_name_usb_dnl_dfu
 .u_boot_list_2_g_dnl_bind_callbacks_2___usb_function_name_usb_dnl_fastboot
                0x000000001786ecb8        0x8 drivers/usb/gadget/built-in.o
                0x000000001786ecb8                _u_boot_list_2_g_dnl_bind_callbacks_2___usb_function_name_usb_dnl_fastboot
 .u_boot_list_2_g_dnl_bind_callbacks_2___usb_function_name_usb_dnl_ums
                0x000000001786ecc0        0x8 drivers/usb/gadget/built-in.o
                0x000000001786ecc0                _u_boot_list_2_g_dnl_bind_callbacks_2___usb_function_name_usb_dnl_ums
 .u_boot_list_2_g_dnl_bind_callbacks_3
                0x000000001786ecc8        0x0 drivers/usb/gadget/built-in.o
 .u_boot_list_2_i2c_1
                0x000000001786ecc8        0x0 cmd/built-in.o
 .u_boot_list_2_i2c_1
                0x000000001786ecc8        0x0 drivers/i2c/built-in.o
 .u_boot_list_2_i2c_2_mxc0
                0x000000001786ecc8       0x2c drivers/i2c/built-in.o
                0x000000001786ecc8                _u_boot_list_2_i2c_2_mxc0
 .u_boot_list_2_i2c_2_mxc1
                0x000000001786ecf4       0x2c drivers/i2c/built-in.o
                0x000000001786ecf4                _u_boot_list_2_i2c_2_mxc1
 .u_boot_list_2_i2c_2_mxc2
                0x000000001786ed20       0x2c drivers/i2c/built-in.o
                0x000000001786ed20                _u_boot_list_2_i2c_2_mxc2
 .u_boot_list_2_i2c_3
                0x000000001786ed4c        0x0 cmd/built-in.o
 .u_boot_list_2_i2c_3
                0x000000001786ed4c        0x0 drivers/i2c/built-in.o
 .u_boot_list_2_part_driver_1
                0x000000001786ed4c        0x0 disk/built-in.o
 .u_boot_list_2_part_driver_2_dos
                0x000000001786ed4c       0x14 disk/built-in.o
                0x000000001786ed4c                _u_boot_list_2_part_driver_2_dos
 .u_boot_list_2_part_driver_3
                0x000000001786ed60        0x0 disk/built-in.o
 .u_boot_list_2_uclass_1
                0x000000001786ed60        0x0 drivers/built-in.o
 .u_boot_list_2_uclass_2_root
                0x000000001786ed60       0x48 drivers/built-in.o
                0x000000001786ed60                _u_boot_list_2_uclass_2_root
 .u_boot_list_2_uclass_2_thermal
                0x000000001786eda8       0x48 drivers/built-in.o
                0x000000001786eda8                _u_boot_list_2_uclass_2_thermal
 .u_boot_list_2_uclass_3
                0x000000001786edf0        0x0 drivers/built-in.o
                0x000000001786edf0                . = ALIGN (0x4)

.__efi_runtime_start
                0x000000001786edf0        0x0
 *(.__efi_runtime_start)
 .__efi_runtime_start
                0x000000001786edf0        0x0 arch/arm/lib/built-in.o

.efi_runtime    0x000000001786edf0       0xe0
 *(efi_runtime_text)
 efi_runtime_text
                0x000000001786edf0       0x18 lib/built-in.o
 *(efi_runtime_data)
 efi_runtime_data
                0x000000001786ee08       0xc8 lib/built-in.o
                0x000000001786ee08                systab
                0x000000001786ee80                efi_runtime_services

.__efi_runtime_stop
                0x000000001786eed0        0x0
 *(.__efi_runtime_stop)
 .__efi_runtime_stop
                0x000000001786eed0        0x0 arch/arm/lib/built-in.o

.efi_runtime_rel_start
                0x000000001786eed0        0x0
 *(.__efi_runtime_rel_start)
 .__efi_runtime_rel_start
                0x000000001786eed0        0x0 arch/arm/lib/built-in.o

.efi_runtime_rel
                0x000000001786eed0       0x90
 *(.relefi_runtime_text)
 *(.relefi_runtime_data)
 .relefi_runtime_data
                0x000000001786eed0       0x90 arch/arm/cpu/armv7/start.o

.efi_runtime_rel_stop
                0x000000001786ef60        0x0
 *(.__efi_runtime_rel_stop)
 .__efi_runtime_rel_stop
                0x000000001786ef60        0x0 arch/arm/lib/built-in.o
                0x000000001786ef60                . = ALIGN (0x4)

.image_copy_end
                0x000000001786ef60        0x0
 *(.__image_copy_end)
 .__image_copy_end
                0x000000001786ef60        0x0 arch/arm/lib/built-in.o

.rel_dyn_start  0x000000001786ef60        0x0
 *(.__rel_dyn_start)
 .__rel_dyn_start
                0x000000001786ef60        0x0 arch/arm/lib/built-in.o

.rel.dyn        0x000000001786ef60     0xae08
 *(.rel*)
 .rel.got       0x0000000000000000        0x0 arch/arm/cpu/armv7/start.o
 .rel.plt       0x0000000000000000        0x0 arch/arm/cpu/armv7/start.o
 .rel.iplt      0x0000000000000000        0x0 arch/arm/cpu/armv7/start.o
 .rel.text      0x000000001786ef60       0x20 arch/arm/cpu/armv7/start.o
 .rel.text.v7_dcache_inval_range
                0x000000001786ef80       0x18 arch/arm/cpu/armv7/start.o
 .rel.text.get_ipg_clk
                0x000000001786ef98        0x8 arch/arm/cpu/armv7/start.o
 .rel.text.get_uart_clk
                0x000000001786efa0        0x8 arch/arm/cpu/armv7/start.o
 .rel.text.mxc_get_pll_pfd
                0x000000001786efa8        0x8 arch/arm/cpu/armv7/start.o
 .rel.text.get_usdhc_clk
                0x000000001786efb0       0x28 arch/arm/cpu/armv7/start.o
 .rel.text.enable_ocotp_clk
                0x000000001786efd8        0x8 arch/arm/cpu/armv7/start.o
 .rel.text.enable_usboh3_clk
                0x000000001786efe0        0x8 arch/arm/cpu/armv7/start.o
 .rel.text.enable_enet_clk
                0x0000000000000000        0x0 arch/arm/cpu/armv7/start.o
 .rel.text.enable_uart_clk
                0x0000000000000000        0x0 arch/arm/cpu/armv7/start.o
 .rel.text.enable_usdhc_clk
                0x0000000000000000        0x0 arch/arm/cpu/armv7/start.o
 .rel.text.enable_i2c_clk
                0x000000001786efe8        0x8 arch/arm/cpu/armv7/start.o
 .rel.text.enable_spi_clk
                0x0000000000000000        0x0 arch/arm/cpu/armv7/start.o
 .rel.text.get_periph_clk
                0x000000001786eff0        0x8 arch/arm/cpu/armv7/start.o
 .rel.text.get_axi_clk
                0x000000001786eff8        0x8 arch/arm/cpu/armv7/start.o
 .rel.text.mxc_get_clock
                0x000000001786f000       0x98 arch/arm/cpu/armv7/start.o
 .rel.text.do_mx6_showclocks
                0x000000001786f098       0x98 arch/arm/cpu/armv7/start.o
 .rel.text.cpu_reset
                0x000000001786f130        0x8 arch/arm/cpu/armv7/start.o
 .rel.text.cpu_status
                0x000000001786f138       0x10 arch/arm/cpu/armv7/start.o
 .rel.text.cpu_release
                0x000000001786f148        0x8 arch/arm/cpu/armv7/start.o
 .rel.text.cpu_disable
                0x000000001786f150        0x8 arch/arm/cpu/armv7/start.o
 .rel.rodata.soc_boot_modes
                0x000000001786f158       0x58 arch/arm/cpu/armv7/start.o
 .rel.u_boot_list_2_driver_info_2_imx6_thermal
                0x000000001786f1b0       0x10 arch/arm/cpu/armv7/start.o
 .rel.u_boot_list_2_cmd_2_clocks
                0x000000001786f1c0       0x20 arch/arm/cpu/armv7/start.o
 .rel.text.get_imx_reset_cause
                0x0000000000000000        0x0 arch/arm/cpu/armv7/start.o
 .rel.text.imx_ddr_size
                0x000000001786f1e0       0x10 arch/arm/cpu/armv7/start.o
 .rel.text.get_imx_type
                0x000000001786f1f0       0x10 arch/arm/cpu/armv7/start.o
 .rel.text.print_cpuinfo
                0x000000001786f200       0xb0 arch/arm/cpu/armv7/start.o
 .rel.text.set_chipselect_size
                0x0000000000000000        0x0 arch/arm/cpu/armv7/start.o
 .rel.text.force_idle_bus
                0x000000001786f2b0       0x18 arch/arm/cpu/armv7/start.o
 .rel.text.setup_i2c
                0x000000001786f2c8       0x18 arch/arm/cpu/armv7/start.o
 .rel.text.board_video_skip
                0x000000001786f2e0       0x40 arch/arm/cpu/armv7/start.o
 .rel.text.create_usage
                0x000000001786f320       0x10 arch/arm/cpu/armv7/start.o
 .rel.text.do_boot_mode
                0x000000001786f330       0x10 arch/arm/cpu/armv7/start.o
 .rel.text.add_board_boot_modes
                0x000000001786f340       0x18 arch/arm/cpu/armv7/start.o
 .rel.rodata.CSWTCH.13
                0x000000001786f358      0x110 arch/arm/cpu/armv7/start.o
 .rel.u_boot_list_2_cmd_2_bmode
                0x000000001786f468       0x18 arch/arm/cpu/armv7/start.o
 .rel.vectors   0x000000001786f480       0x38 arch/arm/cpu/armv7/start.o
 .rel.text.relocate_vectors
                0x000000001786f4b8       0x20 arch/arm/cpu/armv7/start.o
 .rel.text.boot_jump_linux
                0x000000001786f4d8       0x28 arch/arm/cpu/armv7/start.o
 .rel.text.boot_prep_linux
                0x000000001786f500       0x18 arch/arm/cpu/armv7/start.o
 .rel.text.bootz_setup
                0x000000001786f518       0x10 arch/arm/cpu/armv7/start.o
 .rel.text.boot_prep_vxworks
                0x000000001786f528       0x10 arch/arm/cpu/armv7/start.o
 .rel.text.v7_outer_cache_inval_range
                0x000000001786f538       0x18 arch/arm/cpu/armv7/start.o
 .rel.text.interrupt_init
                0x000000001786f550        0x8 arch/arm/cpu/armv7/start.o
 .rel.text.bad_mode
                0x000000001786f558        0x8 arch/arm/cpu/armv7/start.o
 .rel.text.show_regs
                0x000000001786f560       0x60 arch/arm/cpu/armv7/start.o
 .rel.text.do_undefined_instruction
                0x000000001786f5c0        0x8 arch/arm/cpu/armv7/start.o
 .rel.text.do_software_interrupt
                0x000000001786f5c8        0x8 arch/arm/cpu/armv7/start.o
 .rel.text.do_prefetch_abort
                0x000000001786f5d0        0x8 arch/arm/cpu/armv7/start.o
 .rel.text.do_data_abort
                0x000000001786f5d8        0x8 arch/arm/cpu/armv7/start.o
 .rel.text.do_not_used
                0x000000001786f5e0        0x8 arch/arm/cpu/armv7/start.o
 .rel.text.do_fiq
                0x000000001786f5e8        0x8 arch/arm/cpu/armv7/start.o
 .rel.text.do_irq
                0x000000001786f5f0        0x8 arch/arm/cpu/armv7/start.o
 .rel.text.do_reset
                0x000000001786f5f8        0x8 arch/arm/cpu/armv7/start.o
 .rel.text.enable_caches
                0x0000000000000000        0x0 arch/arm/cpu/armv7/start.o
 .rel.rodata    0x000000001786f600      0x168 arch/arm/cpu/armv7/start.o
 .rel.text.pfuze_mode_init
                0x000000001786f768       0x18 arch/arm/cpu/armv7/start.o
 .rel.text.pfuze_common_init
                0x000000001786f780       0x10 arch/arm/cpu/armv7/start.o
 .rel.text.enable_rgb
                0x000000001786f790        0x8 arch/arm/cpu/armv7/start.o
 .rel.text.board_mmc_init
                0x000000001786f798       0x20 arch/arm/cpu/armv7/start.o
 .rel.text.board_eth_init
                0x000000001786f7b8       0x10 arch/arm/cpu/armv7/start.o
 .rel.text.board_ehci_power
                0x000000001786f7c8        0x8 arch/arm/cpu/armv7/start.o
 .rel.text.board_early_init_f
                0x000000001786f7d0       0x10 arch/arm/cpu/armv7/start.o
 .rel.text.board_init
                0x000000001786f7e0       0x20 arch/arm/cpu/armv7/start.o
 .rel.text.board_late_init
                0x000000001786f800       0x38 arch/arm/cpu/armv7/start.o
 .rel.text.checkboard
                0x000000001786f838        0x8 arch/arm/cpu/armv7/start.o
 .rel.rodata.displays
                0x000000001786f840       0x30 arch/arm/cpu/armv7/start.o
 .rel.rodata.board_boot_modes
                0x000000001786f870       0x18 arch/arm/cpu/armv7/start.o
 .rel.text.do_go
                0x000000001786f888       0x10 arch/arm/cpu/armv7/start.o
 .rel.text.do_bootm
                0x000000001786f898       0x18 arch/arm/cpu/armv7/start.o
 .rel.text.do_bootd
                0x000000001786f8b0        0x8 arch/arm/cpu/armv7/start.o
 .rel.text.image_info
                0x000000001786f8b8       0x40 arch/arm/cpu/armv7/start.o
 .rel.text.do_iminfo
                0x000000001786f8f8        0x8 arch/arm/cpu/armv7/start.o
 .rel.text.bootm_maybe_autostart
                0x000000001786f900       0x20 arch/arm/cpu/armv7/start.o
 .rel.text.do_bootz
                0x000000001786f920       0x10 arch/arm/cpu/armv7/start.o
 .rel.text.do_help
                0x000000001786f930       0x10 arch/arm/cpu/armv7/start.o
 .rel.text.do_version
                0x000000001786f940       0x20 arch/arm/cpu/armv7/start.o
 .rel.text.source
                0x000000001786f960       0x38 arch/arm/cpu/armv7/start.o
 .rel.text.do_source
                0x000000001786f998        0x8 arch/arm/cpu/armv7/start.o
 .rel.text.print_num
                0x000000001786f9a0        0x8 arch/arm/cpu/armv7/start.o
 .rel.text.do_bdinfo
                0x000000001786f9a8       0xa0 arch/arm/cpu/armv7/start.o
 .rel.text.bootefi_open_dp
                0x000000001786fa48        0x8 arch/arm/cpu/armv7/start.o
 .rel.text.do_bootefi_exec
                0x000000001786fa50       0x40 arch/arm/cpu/armv7/start.o
 .rel.text.do_bootefi
                0x000000001786fa90       0x10 arch/arm/cpu/armv7/start.o
 .rel.text.efi_set_bootdev
                0x000000001786faa0       0x30 arch/arm/cpu/armv7/start.o
 .rel.text.parse_argv
                0x000000001786fad0       0x18 arch/arm/cpu/armv7/start.o
 .rel.text.invalidate_icache_all
                0x0000000000000000        0x0 arch/arm/cpu/armv7/start.o
 .rel.text.do_icache
                0x000000001786fae8       0x18 arch/arm/cpu/armv7/start.o
 .rel.text.flush_dcache_all
                0x0000000000000000        0x0 arch/arm/cpu/armv7/start.o
 .rel.text.do_dcache
                0x000000001786fb00       0x18 arch/arm/cpu/armv7/start.o
 .rel.text.do_coninfo
                0x000000001786fb18       0x28 arch/arm/cpu/armv7/start.o
 .rel.text.do_echo
                0x000000001786fb40        0x8 arch/arm/cpu/armv7/start.o
 .rel.text.valid_elf_image
                0x000000001786fb48       0x10 arch/arm/cpu/armv7/start.o
 .rel.text.do_bootelf
                0x000000001786fb58       0x28 arch/arm/cpu/armv7/start.o
 .rel.text.do_bootvx
                0x000000001786fb80       0xe0 arch/arm/cpu/armv7/start.o
 .rel.text.do_fat_fsinfo
                0x000000001786fc60       0x10 arch/arm/cpu/armv7/start.o
 .rel.text.fdt_valid
                0x000000001786fc70       0x28 arch/arm/cpu/armv7/start.o
 .rel.text.is_printable_string
                0x000000001786fc98        0x8 arch/arm/cpu/armv7/start.o
 .rel.text.print_data
                0x000000001786fca0       0x58 arch/arm/cpu/armv7/start.o
 .rel.text.set_working_fdt_addr
                0x000000001786fcf8       0x10 arch/arm/cpu/armv7/start.o
 .rel.text.do_fdt
                0x000000001786fd08      0x240 arch/arm/cpu/armv7/start.o
 .rel.text.do_load_wrapper
                0x000000001786ff48        0x8 arch/arm/cpu/armv7/start.o
 .rel.text.do_fuse
                0x000000001786ff50       0x70 arch/arm/cpu/armv7/start.o
 .rel.text.do_gpio
                0x000000001786ffc0       0x40 arch/arm/cpu/armv7/start.o
 .rel.text.do_i2c
                0x0000000017870000        0x8 arch/arm/cpu/armv7/start.o
 .rel.text.do_i2c_bus_speed
                0x0000000017870008       0x18 arch/arm/cpu/armv7/start.o
 .rel.text.do_i2c_probe
                0x0000000017870020       0x10 arch/arm/cpu/armv7/start.o
 .rel.text.do_i2c_bus_num
                0x0000000017870030       0x30 arch/arm/cpu/armv7/start.o
 .rel.text.do_i2c_show_bus
                0x0000000017870060       0x28 arch/arm/cpu/armv7/start.o
 .rel.text.do_i2c_crc
                0x0000000017870088       0x20 arch/arm/cpu/armv7/start.o
 .rel.text.do_i2c_write
                0x00000000178700a8       0x18 arch/arm/cpu/armv7/start.o
 .rel.text.do_i2c_mw
                0x00000000178700c0       0x10 arch/arm/cpu/armv7/start.o
 .rel.text.do_i2c_read
                0x00000000178700d0       0x10 arch/arm/cpu/armv7/start.o
 .rel.text.do_i2c_md
                0x00000000178700e0       0x58 arch/arm/cpu/armv7/start.o
 .rel.text.mod_i2c_mem.isra.3
                0x0000000017870138       0x60 arch/arm/cpu/armv7/start.o
 .rel.text.do_i2c_loop
                0x0000000017870198       0x10 arch/arm/cpu/armv7/start.o
 .rel.text.binary_test
                0x00000000178701a8       0x78 arch/arm/cpu/armv7/start.o
 .rel.text.do_itest
                0x0000000017870220       0x40 arch/arm/cpu/armv7/start.o
 .rel.text.bin_data_init
                0x0000000017870260       0x18 arch/arm/cpu/armv7/start.o
 .rel.text.k_data_save
                0x0000000017870278       0x30 arch/arm/cpu/armv7/start.o
 .rel.text.k_data_restore
                0x00000000178702a8       0x30 arch/arm/cpu/armv7/start.o
 .rel.text.load_serial_ymodem
                0x00000000178702d8       0x20 arch/arm/cpu/armv7/start.o
 .rel.text.bin_data_char
                0x00000000178702f8       0x10 arch/arm/cpu/armv7/start.o
 .rel.text.chk1.constprop.1
                0x0000000017870308        0x8 arch/arm/cpu/armv7/start.o
 .rel.text.s1_sendpacket.constprop.2
                0x0000000017870310       0x18 arch/arm/cpu/armv7/start.o
 .rel.text.load_serial
                0x0000000017870328       0x68 arch/arm/cpu/armv7/start.o
 .rel.text.do_load_serial
                0x0000000017870390       0x30 arch/arm/cpu/armv7/start.o
 .rel.text.do_load_serial_bin
                0x00000000178703c0       0xe8 arch/arm/cpu/armv7/start.o
 .rel.text.do_mem_mw
                0x00000000178704a8        0x8 arch/arm/cpu/armv7/start.o
 .rel.text.do_mem_md
                0x00000000178704b0       0x20 arch/arm/cpu/armv7/start.o
 .rel.text.do_mem_cmp
                0x00000000178704d0       0x38 arch/arm/cpu/armv7/start.o
 .rel.text.do_mem_base
                0x0000000017870508       0x10 arch/arm/cpu/armv7/start.o
 .rel.text.do_mem_cp
                0x0000000017870518       0x10 arch/arm/cpu/armv7/start.o
 .rel.text.do_mem_crc
                0x0000000017870528        0x8 arch/arm/cpu/armv7/start.o
 .rel.text.mod_mem.isra.2
                0x0000000017870530       0x48 arch/arm/cpu/armv7/start.o
 .rel.text.do_mii
                0x0000000017870578      0x160 arch/arm/cpu/armv7/start.o
 .rel.text.do_mdio
                0x00000000178706d8       0x70 arch/arm/cpu/armv7/start.o
 .rel.text.do_mmcops
                0x0000000017870748       0x18 arch/arm/cpu/armv7/start.o
 .rel.text.init_mmc_device
                0x0000000017870760        0x8 arch/arm/cpu/armv7/start.o
 .rel.text.do_mmc_rescan
                0x0000000017870768        0x8 arch/arm/cpu/armv7/start.o
 .rel.text.do_mmc_rst_func
                0x0000000017870770       0x10 arch/arm/cpu/armv7/start.o
 .rel.text.do_mmc_partconf
                0x0000000017870780        0x8 arch/arm/cpu/armv7/start.o
 .rel.text.do_mmc_boot_resize
                0x0000000017870788       0x20 arch/arm/cpu/armv7/start.o
 .rel.text.do_mmc_bootbus
                0x00000000178707a8        0x8 arch/arm/cpu/armv7/start.o
 .rel.text.do_mmc_hwpartition
                0x00000000178707b0       0xb0 arch/arm/cpu/armv7/start.o
 .rel.text.do_mmc_dev
                0x0000000017870860       0x38 arch/arm/cpu/armv7/start.o
 .rel.text.do_mmc_part
                0x0000000017870898       0x10 arch/arm/cpu/armv7/start.o
 .rel.text.do_mmc_erase
                0x00000000178708a8       0x30 arch/arm/cpu/armv7/start.o
 .rel.text.do_mmc_write
                0x00000000178708d8       0x30 arch/arm/cpu/armv7/start.o
 .rel.text.do_mmc_read
                0x0000000017870908       0x28 arch/arm/cpu/armv7/start.o
 .rel.text.do_mmcinfo
                0x0000000017870930       0xf8 arch/arm/cpu/armv7/start.o
 .rel.text.do_mmc_setdsr
                0x0000000017870a28       0x28 arch/arm/cpu/armv7/start.o
 .rel.text.cpu_cmd
                0x0000000017870a50       0x28 arch/arm/cpu/armv7/start.o
 .rel.text.netboot_common
                0x0000000017870a78       0x98 arch/arm/cpu/armv7/start.o
 .rel.text.do_ping
                0x0000000017870b10       0x18 arch/arm/cpu/armv7/start.o
 .rel.text.pci_show_regs
                0x0000000017870b28       0x10 arch/arm/cpu/armv7/start.o
 .rel.text.pci_cfg_modify.isra.1
                0x0000000017870b38       0x20 arch/arm/cpu/armv7/start.o
 .rel.text.pci_header_show
                0x0000000017870b58       0x38 arch/arm/cpu/armv7/start.o
 .rel.text.pciinfo_header
                0x0000000017870b90       0x18 arch/arm/cpu/armv7/start.o
 .rel.text.pci_header_show_brief
                0x0000000017870ba8        0x8 arch/arm/cpu/armv7/start.o
 .rel.text.pciinfo
                0x0000000017870bb0       0x18 arch/arm/cpu/armv7/start.o
 .rel.text.do_pci
                0x0000000017870bc8       0x18 arch/arm/cpu/armv7/start.o
 .rel.text.do_spi_flash
                0x0000000017870be0       0xe0 arch/arm/cpu/armv7/start.o
 .rel.text.substitute
                0x0000000017870cc0        0x8 arch/arm/cpu/armv7/start.o
 .rel.text.regex_sub
                0x0000000017870cc8       0x38 arch/arm/cpu/armv7/start.o
 .rel.text.do_setexpr
                0x0000000017870d00       0x18 arch/arm/cpu/armv7/start.o
 .rel.text.do_test
                0x0000000017870d18       0x70 arch/arm/cpu/armv7/start.o
 .rel.text.usb_get_class_desc
                0x0000000017870d88       0x50 arch/arm/cpu/armv7/start.o
 .rel.text.usb_show_tree_graph
                0x0000000017870dd8       0x48 arch/arm/cpu/armv7/start.o
 .rel.text.usb_display_class_sub
                0x0000000017870e20       0xc8 arch/arm/cpu/armv7/start.o
 .rel.text.usb_display_string
                0x0000000017870ee8        0x8 arch/arm/cpu/armv7/start.o
 .rel.text.usb_display_config
                0x0000000017870ef0       0xa8 arch/arm/cpu/armv7/start.o
 .rel.text.do_usbboot
                0x0000000017870f98        0x8 arch/arm/cpu/armv7/start.o
 .rel.text.usb_display_desc.part.5
                0x0000000017870fa0       0x38 arch/arm/cpu/armv7/start.o
 .rel.text.do_usb_start
                0x0000000017870fd8       0x10 arch/arm/cpu/armv7/start.o
 .rel.text.do_usb
                0x0000000017870fe8      0x170 arch/arm/cpu/armv7/start.o
 .rel.text.do_fastboot
                0x0000000017871158       0x28 arch/arm/cpu/armv7/start.o
 .rel.text.ums_fini
                0x0000000017871180       0x10 arch/arm/cpu/armv7/start.o
 .rel.text.do_usb_mass_storage
                0x0000000017871190       0xa8 arch/arm/cpu/armv7/start.o
 .rel.text.do_imgextract
                0x0000000017871238       0x90 arch/arm/cpu/armv7/start.o
 .rel.text.do_dfu
                0x00000000178712c8       0x38 arch/arm/cpu/armv7/start.o
 .rel.text.do_env_delete
                0x0000000017871300       0x10 arch/arm/cpu/armv7/start.o
 .rel.text.do_env_exists
                0x0000000017871310        0x8 arch/arm/cpu/armv7/start.o
 .rel.text.do_env_save
                0x0000000017871318       0x10 arch/arm/cpu/armv7/start.o
 .rel.text.do_env
                0x0000000017871328        0x8 arch/arm/cpu/armv7/start.o
 .rel.text.env_print
                0x0000000017871330       0x18 arch/arm/cpu/armv7/start.o
 .rel.text.do_env_print
                0x0000000017871348       0x10 arch/arm/cpu/armv7/start.o
 .rel.text.do_env_import
                0x0000000017871358       0x58 arch/arm/cpu/armv7/start.o
 .rel.text.do_env_default
                0x00000000178713b0        0x8 arch/arm/cpu/armv7/start.o
 .rel.text._do_env_set.isra.1
                0x00000000178713b8       0x30 arch/arm/cpu/armv7/start.o
 .rel.text.get_env_id
                0x00000000178713e8        0x8 arch/arm/cpu/armv7/start.o
 .rel.text.setenv
                0x00000000178713f0        0x8 arch/arm/cpu/armv7/start.o
 .rel.text.setenv_hex
                0x00000000178713f8        0x8 arch/arm/cpu/armv7/start.o
 .rel.text.do_env_export
                0x0000000017871400       0x40 arch/arm/cpu/armv7/start.o
 .rel.text.getenv_f
                0x0000000017871440        0x8 arch/arm/cpu/armv7/start.o
 .rel.text.getenv
                0x0000000017871448        0x8 arch/arm/cpu/armv7/start.o
 .rel.text.do_env_edit.part.3
                0x0000000017871450       0x18 arch/arm/cpu/armv7/start.o
 .rel.text.common_diskboot
                0x0000000017871468       0x28 arch/arm/cpu/armv7/start.o
 .rel.rodata.op_table
                0x0000000017871490       0x68 arch/arm/cpu/armv7/start.o
 .rel.rodata.reg_4_desc_tbl
                0x00000000178714f8       0x60 arch/arm/cpu/armv7/start.o
 .rel.rodata.desc_and_len_tbl
                0x0000000017871558       0x30 arch/arm/cpu/armv7/start.o
 .rel.rodata.reg_5_desc_tbl
                0x0000000017871588       0x60 arch/arm/cpu/armv7/start.o
 .rel.rodata.reg_2_desc_tbl
                0x00000000178715e8        0x8 arch/arm/cpu/armv7/start.o
 .rel.rodata.reg_0_5_desc_tbl
                0x00000000178715f0       0x30 arch/arm/cpu/armv7/start.o
 .rel.rodata.reg_3_desc_tbl
                0x0000000017871620       0x18 arch/arm/cpu/armv7/start.o
 .rel.rodata.reg_0_desc_tbl
                0x0000000017871638       0x50 arch/arm/cpu/armv7/start.o
 .rel.rodata.reg_1_desc_tbl
                0x0000000017871688       0x80 arch/arm/cpu/armv7/start.o
 .rel.rodata.op_adv
                0x0000000017871708       0x80 arch/arm/cpu/armv7/start.o
 .rel.rodata.CSWTCH.32
                0x0000000017871788       0x28 arch/arm/cpu/armv7/start.o
 .rel.u_boot_list_2_cmd_2_go
                0x00000000178717b0       0x20 arch/arm/cpu/armv7/start.o
 .rel.u_boot_list_2_cmd_2_reset
                0x00000000178717d0       0x20 arch/arm/cpu/armv7/start.o
 .rel.u_boot_list_2_cmd_2_iminfo
                0x00000000178717f0       0x20 arch/arm/cpu/armv7/start.o
 .rel.u_boot_list_2_cmd_2_bootz
                0x0000000017871810       0x20 arch/arm/cpu/armv7/start.o
 .rel.u_boot_list_2_cmd_2_boot
                0x0000000017871830       0x20 arch/arm/cpu/armv7/start.o
 .rel.u_boot_list_2_cmd_2_bootd
                0x0000000017871850       0x20 arch/arm/cpu/armv7/start.o
 .rel.u_boot_list_2_cmd_2_bootm
                0x0000000017871870       0x20 arch/arm/cpu/armv7/start.o
 .rel.data.cmd_bootm_sub
                0x0000000017871890       0xd8 arch/arm/cpu/armv7/start.o
 .rel.u_boot_list_2_cmd_2_question_mark
                0x0000000017871968       0x20 arch/arm/cpu/armv7/start.o
 .rel.u_boot_list_2_cmd_2_help
                0x0000000017871988       0x20 arch/arm/cpu/armv7/start.o
 .rel.u_boot_list_2_cmd_2_version
                0x00000000178719a8       0x20 arch/arm/cpu/armv7/start.o
 .rel.u_boot_list_2_cmd_2_source
                0x00000000178719c8       0x20 arch/arm/cpu/armv7/start.o
 .rel.u_boot_list_2_cmd_2_bdinfo
                0x00000000178719e8       0x20 arch/arm/cpu/armv7/start.o
 .rel.data.loaded_image_info_obj
                0x0000000017871a08       0x28 arch/arm/cpu/armv7/start.o
 .rel.u_boot_list_2_cmd_2_bootefi
                0x0000000017871a30       0x20 arch/arm/cpu/armv7/start.o
 .rel.data.bootefi_device_obj
                0x0000000017871a50       0x18 arch/arm/cpu/armv7/start.o
 .rel.data.loaded_image_info
                0x0000000017871a68       0x10 arch/arm/cpu/armv7/start.o
 .rel.u_boot_list_2_cmd_2_icache
                0x0000000017871a78       0x20 arch/arm/cpu/armv7/start.o
 .rel.u_boot_list_2_cmd_2_dcache
                0x0000000017871a98       0x20 arch/arm/cpu/armv7/start.o
 .rel.u_boot_list_2_cmd_2_coninfo
                0x0000000017871ab8       0x20 arch/arm/cpu/armv7/start.o
 .rel.u_boot_list_2_cmd_2_echo
                0x0000000017871ad8       0x20 arch/arm/cpu/armv7/start.o
 .rel.u_boot_list_2_cmd_2_bootelf
                0x0000000017871af8       0x20 arch/arm/cpu/armv7/start.o
 .rel.u_boot_list_2_cmd_2_bootvx
                0x0000000017871b18       0x20 arch/arm/cpu/armv7/start.o
 .rel.u_boot_list_2_cmd_2_exit
                0x0000000017871b38       0x20 arch/arm/cpu/armv7/start.o
 .rel.u_boot_list_2_cmd_2_ext4load
                0x0000000017871b58       0x20 arch/arm/cpu/armv7/start.o
 .rel.u_boot_list_2_cmd_2_ext4write
                0x0000000017871b78       0x20 arch/arm/cpu/armv7/start.o
 .rel.u_boot_list_2_cmd_2_ext4ls
                0x0000000017871b98       0x20 arch/arm/cpu/armv7/start.o
 .rel.u_boot_list_2_cmd_2_ext4size
                0x0000000017871bb8       0x20 arch/arm/cpu/armv7/start.o
 .rel.u_boot_list_2_cmd_2_ext2ls
                0x0000000017871bd8       0x20 arch/arm/cpu/armv7/start.o
 .rel.u_boot_list_2_cmd_2_ext2load
                0x0000000017871bf8       0x20 arch/arm/cpu/armv7/start.o
 .rel.u_boot_list_2_cmd_2_fatinfo
                0x0000000017871c18       0x20 arch/arm/cpu/armv7/start.o
 .rel.u_boot_list_2_cmd_2_fatsize
                0x0000000017871c38       0x20 arch/arm/cpu/armv7/start.o
 .rel.u_boot_list_2_cmd_2_fatload
                0x0000000017871c58       0x20 arch/arm/cpu/armv7/start.o
 .rel.u_boot_list_2_cmd_2_fatls
                0x0000000017871c78       0x20 arch/arm/cpu/armv7/start.o
 .rel.u_boot_list_2_cmd_2_fdt
                0x0000000017871c98       0x20 arch/arm/cpu/armv7/start.o
 .rel.u_boot_list_2_cmd_2_save
                0x0000000017871cb8       0x20 arch/arm/cpu/armv7/start.o
 .rel.u_boot_list_2_cmd_2_size
                0x0000000017871cd8       0x20 arch/arm/cpu/armv7/start.o
 .rel.u_boot_list_2_cmd_2_fstype
                0x0000000017871cf8       0x20 arch/arm/cpu/armv7/start.o
 .rel.u_boot_list_2_cmd_2_ls
                0x0000000017871d18       0x20 arch/arm/cpu/armv7/start.o
 .rel.u_boot_list_2_cmd_2_load
                0x0000000017871d38       0x20 arch/arm/cpu/armv7/start.o
 .rel.u_boot_list_2_cmd_2_fuse
                0x0000000017871d58       0x20 arch/arm/cpu/armv7/start.o
 .rel.u_boot_list_2_cmd_2_gpio
                0x0000000017871d78       0x20 arch/arm/cpu/armv7/start.o
 .rel.u_boot_list_2_cmd_2_i2c
                0x0000000017871d98       0x20 arch/arm/cpu/armv7/start.o
 .rel.data.cmd_i2c_sub
                0x0000000017871db8      0x1a0 arch/arm/cpu/armv7/start.o
 .rel.u_boot_list_2_cmd_2_itest
                0x0000000017871f58       0x20 arch/arm/cpu/armv7/start.o
 .rel.u_boot_list_2_cmd_2_loadb
                0x0000000017871f78       0x20 arch/arm/cpu/armv7/start.o
 .rel.u_boot_list_2_cmd_2_loadx
                0x0000000017871f98       0x20 arch/arm/cpu/armv7/start.o
 .rel.u_boot_list_2_cmd_2_loady
                0x0000000017871fb8       0x20 arch/arm/cpu/armv7/start.o
 .rel.u_boot_list_2_cmd_2_loads
                0x0000000017871fd8       0x20 arch/arm/cpu/armv7/start.o
 .rel.u_boot_list_2_cmd_2_base
                0x0000000017871ff8       0x20 arch/arm/cpu/armv7/start.o
 .rel.u_boot_list_2_cmd_2_cmp
                0x0000000017872018       0x20 arch/arm/cpu/armv7/start.o
 .rel.u_boot_list_2_cmd_2_nm
                0x0000000017872038       0x20 arch/arm/cpu/armv7/start.o
 .rel.u_boot_list_2_cmd_2_loop
                0x0000000017872058       0x20 arch/arm/cpu/armv7/start.o
 .rel.u_boot_list_2_cmd_2_cp
                0x0000000017872078       0x20 arch/arm/cpu/armv7/start.o
 .rel.u_boot_list_2_cmd_2_mm
                0x0000000017872098       0x20 arch/arm/cpu/armv7/start.o
 .rel.u_boot_list_2_cmd_2_crc32
                0x00000000178720b8       0x20 arch/arm/cpu/armv7/start.o
 .rel.u_boot_list_2_cmd_2_md
                0x00000000178720d8       0x20 arch/arm/cpu/armv7/start.o
 .rel.u_boot_list_2_cmd_2_mw
                0x00000000178720f8       0x20 arch/arm/cpu/armv7/start.o
 .rel.u_boot_list_2_cmd_2_mii
                0x0000000017872118       0x20 arch/arm/cpu/armv7/start.o
 .rel.u_boot_list_2_cmd_2_mdio
                0x0000000017872138       0x20 arch/arm/cpu/armv7/start.o
 .rel.u_boot_list_2_cmd_2_sleep
                0x0000000017872158       0x20 arch/arm/cpu/armv7/start.o
 .rel.u_boot_list_2_cmd_2_mmcinfo
                0x0000000017872178       0x20 arch/arm/cpu/armv7/start.o
 .rel.data.cmd_mmc
                0x0000000017872198      0x1c0 arch/arm/cpu/armv7/start.o
 .rel.u_boot_list_2_cmd_2_mmc
                0x0000000017872358       0x20 arch/arm/cpu/armv7/start.o
 .rel.u_boot_list_2_cmd_2_cpu
                0x0000000017872378       0x20 arch/arm/cpu/armv7/start.o
 .rel.u_boot_list_2_cmd_2_ping
                0x0000000017872398       0x20 arch/arm/cpu/armv7/start.o
 .rel.u_boot_list_2_cmd_2_dhcp
                0x00000000178723b8       0x20 arch/arm/cpu/armv7/start.o
 .rel.u_boot_list_2_cmd_2_bootp
                0x00000000178723d8       0x20 arch/arm/cpu/armv7/start.o
 .rel.u_boot_list_2_cmd_2_tftpboot
                0x00000000178723f8       0x20 arch/arm/cpu/armv7/start.o
 .rel.u_boot_list_2_cmd_2_nfs
                0x0000000017872418       0x20 arch/arm/cpu/armv7/start.o
 .rel.data.regs_start
                0x0000000017872438       0x28 arch/arm/cpu/armv7/start.o
 .rel.data.regs_cardbus
                0x0000000017872460       0xc0 arch/arm/cpu/armv7/start.o
 .rel.data.regs_bridge
                0x0000000017872520       0xa0 arch/arm/cpu/armv7/start.o
 .rel.data.regs_rest
                0x00000000178725c0       0x38 arch/arm/cpu/armv7/start.o
 .rel.u_boot_list_2_cmd_2_pci
                0x00000000178725f8       0x20 arch/arm/cpu/armv7/start.o
 .rel.data.regs_normal
                0x0000000017872618       0x68 arch/arm/cpu/armv7/start.o
 .rel.u_boot_list_2_cmd_2_sf
                0x0000000017872680       0x20 arch/arm/cpu/armv7/start.o
 .rel.u_boot_list_2_cmd_2_setexpr
                0x00000000178726a0       0x20 arch/arm/cpu/armv7/start.o
 .rel.u_boot_list_2_cmd_2_test
                0x00000000178726c0       0x20 arch/arm/cpu/armv7/start.o
 .rel.u_boot_list_2_cmd_2_true
                0x00000000178726e0       0x18 arch/arm/cpu/armv7/start.o
 .rel.u_boot_list_2_cmd_2_false
                0x00000000178726f8       0x18 arch/arm/cpu/armv7/start.o
 .rel.u_boot_list_2_cmd_2_usb
                0x0000000017872710       0x20 arch/arm/cpu/armv7/start.o
 .rel.u_boot_list_2_cmd_2_usbboot
                0x0000000017872730       0x20 arch/arm/cpu/armv7/start.o
 .rel.u_boot_list_2_cmd_2_fastboot
                0x0000000017872750       0x20 arch/arm/cpu/armv7/start.o
 .rel.u_boot_list_2_cmd_2_ums
                0x0000000017872770       0x20 arch/arm/cpu/armv7/start.o
 .rel.u_boot_list_2_cmd_2_imxtract
                0x0000000017872790       0x20 arch/arm/cpu/armv7/start.o
 .rel.u_boot_list_2_cmd_2_dfu
                0x00000000178727b0       0x20 arch/arm/cpu/armv7/start.o
 .rel.u_boot_list_2_cmd_2_setenv
                0x00000000178727d0       0x28 arch/arm/cpu/armv7/start.o
 .rel.u_boot_list_2_cmd_2_env
                0x00000000178727f8       0x20 arch/arm/cpu/armv7/start.o
 .rel.u_boot_list_2_cmd_2_saveenv
                0x0000000017872818       0x20 arch/arm/cpu/armv7/start.o
 .rel.data.cmd_env_sub
                0x0000000017872838      0x140 arch/arm/cpu/armv7/start.o
 .rel.u_boot_list_2_cmd_2_printenv
                0x0000000017872978       0x28 arch/arm/cpu/armv7/start.o
 .rel.u_boot_list_2_cmd_2_editenv
                0x00000000178729a0       0x28 arch/arm/cpu/armv7/start.o
 .rel.u_boot_list_2_cmd_2_run
                0x00000000178729c8       0x28 arch/arm/cpu/armv7/start.o
 .rel.text.main_loop
                0x00000000178729f0        0x8 arch/arm/cpu/armv7/start.o
 .rel.text.jumptable_init
                0x00000000178729f8       0xc8 arch/arm/cpu/armv7/start.o
 .rel.text.hash_lookup_algo
                0x0000000017872ac0        0x8 arch/arm/cpu/armv7/start.o
 .rel.text.hash_progressive_lookup_algo
                0x0000000000000000        0x0 arch/arm/cpu/armv7/start.o
 .rel.text.hash_command
                0x0000000017872ac8        0x8 arch/arm/cpu/armv7/start.o
 .rel.text.mapset
                0x0000000017872ad0        0x8 arch/arm/cpu/armv7/start.o
 .rel.text.syntax_err
                0x0000000017872ad8        0x8 arch/arm/cpu/armv7/start.o
 .rel.text.xmalloc
                0x0000000017872ae0        0x8 arch/arm/cpu/armv7/start.o
 .rel.text.xrealloc
                0x0000000017872ae8        0x8 arch/arm/cpu/armv7/start.o
 .rel.text.done_word
                0x0000000017872af0        0x8 arch/arm/cpu/armv7/start.o
 .rel.text.do_showvar
                0x0000000017872af8       0x20 arch/arm/cpu/armv7/start.o
 .rel.text.is_assignment
                0x0000000017872b18        0x8 arch/arm/cpu/armv7/start.o
 .rel.text.file_get
                0x0000000017872b20       0x30 arch/arm/cpu/armv7/start.o
 .rel.text.b_addqchr
                0x0000000017872b50        0x8 arch/arm/cpu/armv7/start.o
 .rel.text.get_local_var
                0x0000000017872b58       0x20 arch/arm/cpu/armv7/start.o
 .rel.text.set_local_var
                0x0000000017872b78       0x20 arch/arm/cpu/armv7/start.o
 .rel.text.insert_var_value_sub
                0x0000000017872b98        0x8 arch/arm/cpu/armv7/start.o
 .rel.text.unset_local_var
                0x0000000000000000        0x0 arch/arm/cpu/armv7/start.o
 .rel.text.parse_string_outer
                0x0000000017872ba0       0x18 arch/arm/cpu/armv7/start.o
 .rel.text.run_list_real
                0x0000000017872bb8       0x40 arch/arm/cpu/armv7/start.o
 .rel.text.parse_stream_outer
                0x0000000017872bf8       0x68 arch/arm/cpu/armv7/start.o
 .rel.text.parse_file_outer
                0x0000000017872c60       0x10 arch/arm/cpu/armv7/start.o
 .rel.text.u_boot_hush_start
                0x0000000017872c70       0x18 arch/arm/cpu/armv7/start.o
 .rel.text.bootdelay_process
                0x0000000017872c88       0x18 arch/arm/cpu/armv7/start.o
 .rel.text.autoboot_command
                0x0000000017872ca0       0x18 arch/arm/cpu/armv7/start.o
 .rel.text.setup_mon_len
                0x0000000017872cb8       0x10 arch/arm/cpu/armv7/start.o
 .rel.text.announce_dram_init
                0x0000000017872cc8        0x8 arch/arm/cpu/armv7/start.o
 .rel.text.init_func_i2c
                0x0000000017872cd0       0x10 arch/arm/cpu/armv7/start.o
 .rel.text.init_baud_rate
                0x0000000017872ce0        0x8 arch/arm/cpu/armv7/start.o
 .rel.text.show_dram_config
                0x0000000017872ce8        0x8 arch/arm/cpu/armv7/start.o
 .rel.text.board_init_f
                0x0000000017872cf0        0x8 arch/arm/cpu/armv7/start.o
 .rel.text.initr_net
                0x0000000017872cf8        0x8 arch/arm/cpu/armv7/start.o
 .rel.text.initr_ethaddr
                0x0000000017872d00        0x8 arch/arm/cpu/armv7/start.o
 .rel.text.initr_env
                0x0000000017872d08       0x10 arch/arm/cpu/armv7/start.o
 .rel.text.initr_mmc
                0x0000000017872d18        0x8 arch/arm/cpu/armv7/start.o
 .rel.text.initr_reloc_global_data
                0x0000000017872d20       0x18 arch/arm/cpu/armv7/start.o
 .rel.text.board_init_r
                0x0000000017872d38        0x8 arch/arm/cpu/armv7/start.o
 .rel.text.bootm_find_images
                0x0000000017872d40       0x18 arch/arm/cpu/armv7/start.o
 .rel.text.bootm_decomp_image
                0x0000000017872d58       0x48 arch/arm/cpu/armv7/start.o
 .rel.text.do_bootm_states
                0x0000000017872da0       0xc0 arch/arm/cpu/armv7/start.o
 .rel.text.do_bootm_rtems
                0x0000000017872e60        0x8 arch/arm/cpu/armv7/start.o
 .rel.text.do_bootm_plan9
                0x0000000017872e68       0x18 arch/arm/cpu/armv7/start.o
 .rel.text.do_bootm_standalone
                0x0000000017872e80       0x18 arch/arm/cpu/armv7/start.o
 .rel.text.do_bootm_qnxelf
                0x0000000017872e98        0x8 arch/arm/cpu/armv7/start.o
 .rel.text.do_bootm_netbsd
                0x0000000017872ea0       0x18 arch/arm/cpu/armv7/start.o
 .rel.text.do_bootvx_fdt
                0x0000000017872eb8       0x38 arch/arm/cpu/armv7/start.o
 .rel.text.bootm_os_get_boot_func
                0x0000000017872ef0        0x8 arch/arm/cpu/armv7/start.o
 .rel.text.regex_callback
                0x0000000017872ef8       0x10 arch/arm/cpu/armv7/start.o
 .rel.text.env_attr_lookup
                0x0000000017872f08        0x8 arch/arm/cpu/armv7/start.o
 .rel.text.find_env_callback
                0x0000000017872f10       0x10 arch/arm/cpu/armv7/start.o
 .rel.text.on_callbacks
                0x0000000017872f20       0x20 arch/arm/cpu/armv7/start.o
 .rel.text.set_callback
                0x0000000017872f40        0x8 arch/arm/cpu/armv7/start.o
 .rel.text.env_callback_init
                0x0000000017872f48       0x20 arch/arm/cpu/armv7/start.o
 .rel.text.skip_num
                0x0000000017872f68        0x8 arch/arm/cpu/armv7/start.o
 .rel.text.on_flags
                0x0000000017872f70       0x20 arch/arm/cpu/armv7/start.o
 .rel.text.env_flags_parse_vartype
                0x0000000017872f90       0x10 arch/arm/cpu/armv7/start.o
 .rel.text.env_flags_parse_varaccess
                0x0000000017872fa0       0x10 arch/arm/cpu/armv7/start.o
 .rel.text.set_flags
                0x0000000017872fb0       0x10 arch/arm/cpu/armv7/start.o
 .rel.text.env_flags_parse_varaccess_from_binflags
                0x0000000000000000        0x0 arch/arm/cpu/armv7/start.o
 .rel.text.env_flags_init
                0x0000000017872fc0       0x30 arch/arm/cpu/armv7/start.o
 .rel.text.env_flags_validate
                0x0000000017872ff0       0x68 arch/arm/cpu/armv7/start.o
 .rel.text.env_init
                0x0000000017873058        0x8 arch/arm/cpu/armv7/start.o
 .rel.text.saveenv
                0x0000000017873060       0x38 arch/arm/cpu/armv7/start.o
 .rel.text.env_relocate_spec
                0x0000000017873098       0x18 arch/arm/cpu/armv7/start.o
 .rel.text.of_bus_default_count_cells
                0x0000000000000000        0x0 arch/arm/cpu/armv7/start.o
 .rel.text.fdt_find_or_add_subnode
                0x00000000178730b0       0x10 arch/arm/cpu/armv7/start.o
 .rel.text.fdt_root
                0x00000000178730c0       0x20 arch/arm/cpu/armv7/start.o
 .rel.text.fdt_initrd
                0x00000000178730e0       0x30 arch/arm/cpu/armv7/start.o
 .rel.text.fdt_chosen
                0x0000000017873110       0x20 arch/arm/cpu/armv7/start.o
 .rel.text.do_fixup_by_path
                0x0000000017873130        0x8 arch/arm/cpu/armv7/start.o
 .rel.text.fdt_fixup_memory_banks
                0x0000000017873138       0x38 arch/arm/cpu/armv7/start.o
 .rel.text.fdt_fixup_ethernet
                0x0000000017873170       0x30 arch/arm/cpu/armv7/start.o
 .rel.text.fdt_pci_dma_ranges
                0x0000000000000000        0x0 arch/arm/cpu/armv7/start.o
 .rel.text.fdt_del_node_and_alias
                0x0000000000000000        0x0 arch/arm/cpu/armv7/start.o
 .rel.text.fdt_translate_address
                0x0000000000000000        0x0 arch/arm/cpu/armv7/start.o
 .rel.text.fdt_node_offset_by_compat_reg
                0x0000000000000000        0x0 arch/arm/cpu/armv7/start.o
 .rel.text.fdt_set_phandle
                0x0000000000000000        0x0 arch/arm/cpu/armv7/start.o
 .rel.text.fdt_create_phandle
                0x0000000000000000        0x0 arch/arm/cpu/armv7/start.o
 .rel.text.fdt_set_node_status
                0x0000000000000000        0x0 arch/arm/cpu/armv7/start.o
 .rel.text.fdt_add_edid
                0x0000000000000000        0x0 arch/arm/cpu/armv7/start.o
 .rel.text.fdt_verify_alias_address
                0x0000000000000000        0x0 arch/arm/cpu/armv7/start.o
 .rel.text.fdt_get_base_address
                0x0000000000000000        0x0 arch/arm/cpu/armv7/start.o
 .rel.text.fdt_read_range
                0x0000000000000000        0x0 arch/arm/cpu/armv7/start.o
 .rel.text.fdt_setup_simplefb_node
                0x0000000000000000        0x0 arch/arm/cpu/armv7/start.o
 .rel.text.fdt_fixup_display
                0x0000000000000000        0x0 arch/arm/cpu/armv7/start.o
 .rel.text.miiphy_get_dev_by_name
                0x00000000178731a0       0x10 arch/arm/cpu/armv7/start.o
 .rel.text.miiphy_init
                0x00000000178731b0       0x10 arch/arm/cpu/armv7/start.o
 .rel.text.miiphy_register
                0x0000000000000000        0x0 arch/arm/cpu/armv7/start.o
 .rel.text.mdio_register
                0x00000000178731c0       0x18 arch/arm/cpu/armv7/start.o
 .rel.text.mdio_unregister
                0x00000000178731d8        0x8 arch/arm/cpu/armv7/start.o
 .rel.text.mdio_list_devices
                0x00000000178731e0       0x28 arch/arm/cpu/armv7/start.o
 .rel.text.miiphy_set_current_dev
                0x0000000017873208       0x10 arch/arm/cpu/armv7/start.o
 .rel.text.miiphy_get_active_dev
                0x0000000017873218        0x8 arch/arm/cpu/armv7/start.o
 .rel.text.mdio_get_current_dev
                0x0000000017873220        0x8 arch/arm/cpu/armv7/start.o
 .rel.text.mdio_phydev_for_ethname
                0x0000000017873228       0x10 arch/arm/cpu/armv7/start.o
 .rel.text.miiphy_get_current_dev
                0x0000000017873238        0x8 arch/arm/cpu/armv7/start.o
 .rel.text.miiphy_listdev
                0x0000000017873240       0x30 arch/arm/cpu/armv7/start.o
 .rel.text.miiphy_speed
                0x0000000017873270       0x18 arch/arm/cpu/armv7/start.o
 .rel.text.miiphy_duplex
                0x0000000017873288       0x18 arch/arm/cpu/armv7/start.o
 .rel.text.usb_stop
                0x00000000178732a0       0x18 arch/arm/cpu/armv7/start.o
 .rel.text.usb_detect_change
                0x0000000000000000        0x0 arch/arm/cpu/armv7/start.o
 .rel.text.usb_disable_asynch
                0x00000000178732b8        0x8 arch/arm/cpu/armv7/start.o
 .rel.text.usb_control_msg
                0x00000000178732c0        0x8 arch/arm/cpu/armv7/start.o
 .rel.text.get_descriptor_len
                0x00000000178732c8       0x10 arch/arm/cpu/armv7/start.o
 .rel.text.usb_string_sub
                0x00000000178732d8        0x8 arch/arm/cpu/armv7/start.o
 .rel.text.usb_get_configuration_len
                0x00000000178732e0       0x10 arch/arm/cpu/armv7/start.o
 .rel.text.usb_set_interface
                0x00000000178732f0        0x8 arch/arm/cpu/armv7/start.o
 .rel.text.usb_get_dev_index
                0x00000000178732f8        0x8 arch/arm/cpu/armv7/start.o
 .rel.text.usb_alloc_new_device
                0x0000000017873300       0x18 arch/arm/cpu/armv7/start.o
 .rel.text.usb_free_device
                0x0000000017873318       0x10 arch/arm/cpu/armv7/start.o
 .rel.text.usb_select_config
                0x0000000017873328       0x70 arch/arm/cpu/armv7/start.o
 .rel.text.usb_setup_device
                0x0000000017873398       0x18 arch/arm/cpu/armv7/start.o
 .rel.text.usb_init
                0x00000000178733b0       0x58 arch/arm/cpu/armv7/start.o
 .rel.text.usb_find_usb2_hub_address_port
                0x0000000017873408        0x8 arch/arm/cpu/armv7/start.o
 .rel.text.usb_hub_reset
                0x0000000017873410       0x10 arch/arm/cpu/armv7/start.o
 .rel.text.usb_hub_port_connect_change
                0x0000000017873420       0x10 arch/arm/cpu/armv7/start.o
 .rel.text.usb_hub_configure
                0x0000000017873430       0x40 arch/arm/cpu/armv7/start.o
 .rel.text.usb_stor_BBB_transport
                0x0000000017873470       0x10 arch/arm/cpu/armv7/start.o
 .rel.text.usb_stor_CB_comdat
                0x0000000017873480        0x8 arch/arm/cpu/armv7/start.o
 .rel.text.usb_stor_CBI_get_status.isra.4
                0x0000000017873488        0x8 arch/arm/cpu/armv7/start.o
 .rel.text.usb_stor_CB_transport
                0x0000000017873490       0x10 arch/arm/cpu/armv7/start.o
 .rel.text.usb_request_sense.constprop.9
                0x00000000178734a0        0x8 arch/arm/cpu/armv7/start.o
 .rel.text.usb_stor_read
                0x00000000178734a8       0x10 arch/arm/cpu/armv7/start.o
 .rel.text.usb_stor_write
                0x00000000178734b8       0x10 arch/arm/cpu/armv7/start.o
 .rel.text.usb_stor_info
                0x00000000178734c8       0x20 arch/arm/cpu/armv7/start.o
 .rel.text.usb_stor_reset
                0x0000000000000000        0x0 arch/arm/cpu/armv7/start.o
 .rel.text.usb_storage_probe
                0x00000000178734e8       0x38 arch/arm/cpu/armv7/start.o
 .rel.text.usb_stor_get_info
                0x0000000017873520       0x20 arch/arm/cpu/armv7/start.o
 .rel.text.usb_stor_scan
                0x0000000017873540       0x40 arch/arm/cpu/armv7/start.o
 .rel.text.splash_get_pos
                0x0000000017873580        0x8 arch/arm/cpu/armv7/start.o
 .rel.text.env_get_addr
                0x0000000017873588        0x8 arch/arm/cpu/armv7/start.o
 .rel.text.env_get_char
                0x0000000017873590        0x8 arch/arm/cpu/armv7/start.o
 .rel.text.set_default_env
                0x0000000017873598       0x40 arch/arm/cpu/armv7/start.o
 .rel.text.set_default_vars
                0x00000000178735d8       0x10 arch/arm/cpu/armv7/start.o
 .rel.text.env_import
                0x00000000178735e8       0x38 arch/arm/cpu/armv7/start.o
 .rel.text.env_export
                0x0000000017873620       0x28 arch/arm/cpu/armv7/start.o
 .rel.text.env_relocate
                0x0000000017873648        0x8 arch/arm/cpu/armv7/start.o
 .rel.text.env_complete
                0x0000000017873650       0x18 arch/arm/cpu/armv7/start.o
 .rel.text.console_setfile
                0x0000000017873668       0x30 arch/arm/cpu/armv7/start.o
 .rel.text.puts
                0x0000000017873698        0x8 arch/arm/cpu/armv7/start.o
 .rel.text.fgetc
                0x00000000178736a0        0x8 arch/arm/cpu/armv7/start.o
 .rel.text.ftstc
                0x00000000178736a8        0x8 arch/arm/cpu/armv7/start.o
 .rel.text.fputc
                0x00000000178736b0        0x8 arch/arm/cpu/armv7/start.o
 .rel.text.fputs
                0x0000000000000000        0x0 arch/arm/cpu/armv7/start.o
 .rel.text.ctrlc
                0x00000000178736b8       0x10 arch/arm/cpu/armv7/start.o
 .rel.text.confirm_yesno
                0x00000000178736c8       0x20 arch/arm/cpu/armv7/start.o
 .rel.text.disable_ctrlc
                0x0000000000000000        0x0 arch/arm/cpu/armv7/start.o
 .rel.text.had_ctrlc
                0x00000000178736e8        0x8 arch/arm/cpu/armv7/start.o
 .rel.text.clear_ctrlc
                0x00000000178736f0        0x8 arch/arm/cpu/armv7/start.o
 .rel.text.on_console
                0x00000000178736f8       0x20 arch/arm/cpu/armv7/start.o
 .rel.text.stdio_print_current_devices
                0x0000000017873718       0x40 arch/arm/cpu/armv7/start.o
 .rel.text.console_init_r
                0x0000000017873758       0x48 arch/arm/cpu/armv7/start.o
 .rel.text.sbrk
                0x00000000178737a0       0x18 arch/arm/cpu/armv7/start.o
 .rel.text.mem_malloc_init
                0x00000000178737b8       0x18 arch/arm/cpu/armv7/start.o
 .rel.text.malloc_trim
                0x00000000178737d0       0x18 arch/arm/cpu/armv7/start.o
 .rel.text.free
                0x00000000178737e8       0x18 arch/arm/cpu/armv7/start.o
 .rel.text.malloc
                0x0000000017873800       0x40 arch/arm/cpu/armv7/start.o
 .rel.text.calloc
                0x0000000017873840        0x8 arch/arm/cpu/armv7/start.o
 .rel.text.realloc
                0x0000000017873848       0x10 arch/arm/cpu/armv7/start.o
 .rel.text.mallopt
                0x0000000000000000        0x0 arch/arm/cpu/armv7/start.o
 .rel.text.on_loadaddr
                0x0000000017873858        0x8 arch/arm/cpu/armv7/start.o
 .rel.text.getenv_bootm_low
                0x0000000017873860        0x8 arch/arm/cpu/armv7/start.o
 .rel.text.getenv_bootm_size
                0x0000000017873868       0x10 arch/arm/cpu/armv7/start.o
 .rel.text.getenv_bootm_mapsize
                0x0000000017873878        0x8 arch/arm/cpu/armv7/start.o
 .rel.text.genimg_print_size
                0x0000000017873880       0x10 arch/arm/cpu/armv7/start.o
 .rel.text.genimg_get_short_name
                0x0000000000000000        0x0 arch/arm/cpu/armv7/start.o
 .rel.text.genimg_get_os_name
                0x0000000017873890       0x10 arch/arm/cpu/armv7/start.o
 .rel.text.genimg_get_arch_name
                0x00000000178738a0       0x10 arch/arm/cpu/armv7/start.o
 .rel.text.genimg_get_type_name
                0x00000000178738b0       0x10 arch/arm/cpu/armv7/start.o
 .rel.text.genimg_get_type_short_name
                0x0000000000000000        0x0 arch/arm/cpu/armv7/start.o
 .rel.text.genimg_get_comp_name
                0x00000000178738c0       0x10 arch/arm/cpu/armv7/start.o
 .rel.text.image_print_contents
                0x00000000178738d0       0x50 arch/arm/cpu/armv7/start.o
 .rel.text.genimg_get_comp_short_name
                0x0000000000000000        0x0 arch/arm/cpu/armv7/start.o
 .rel.text.genimg_get_os_short_name
                0x0000000000000000        0x0 arch/arm/cpu/armv7/start.o
 .rel.text.genimg_get_arch_short_name
                0x0000000000000000        0x0 arch/arm/cpu/armv7/start.o
 .rel.text.genimg_get_os_id
                0x0000000000000000        0x0 arch/arm/cpu/armv7/start.o
 .rel.text.genimg_get_arch_id
                0x0000000000000000        0x0 arch/arm/cpu/armv7/start.o
 .rel.text.genimg_get_type_id
                0x0000000000000000        0x0 arch/arm/cpu/armv7/start.o
 .rel.text.genimg_get_comp_id
                0x0000000000000000        0x0 arch/arm/cpu/armv7/start.o
 .rel.text.genimg_get_kernel_addr_fit
                0x0000000017873920        0x8 arch/arm/cpu/armv7/start.o
 .rel.text.boot_get_ramdisk
                0x0000000017873928       0x50 arch/arm/cpu/armv7/start.o
 .rel.text.boot_ramdisk_high
                0x0000000017873978       0x20 arch/arm/cpu/armv7/start.o
 .rel.text.android_image_get_kernel
                0x0000000017873998       0x38 arch/arm/cpu/armv7/start.o
 .rel.text.android_image_check_header
                0x00000000178739d0        0x8 arch/arm/cpu/armv7/start.o
 .rel.text.android_image_get_ramdisk
                0x00000000178739d8        0x8 arch/arm/cpu/armv7/start.o
 .rel.text.fdt_error
                0x00000000178739e0       0x10 arch/arm/cpu/armv7/start.o
 .rel.text.boot_fdt_add_mem_rsv_regions
                0x00000000178739f0        0x8 arch/arm/cpu/armv7/start.o
 .rel.text.boot_relocate_fdt
                0x00000000178739f8       0x40 arch/arm/cpu/armv7/start.o
 .rel.text.boot_get_fdt
                0x0000000017873a38       0x80 arch/arm/cpu/armv7/start.o
 .rel.text.image_setup_libfdt
                0x0000000017873ab8       0x20 arch/arm/cpu/armv7/start.o
 .rel.text.stdio_get_list
                0x0000000017873ad8        0x8 arch/arm/cpu/armv7/start.o
 .rel.text.stdio_get_by_name
                0x0000000017873ae0        0x8 arch/arm/cpu/armv7/start.o
 .rel.text.stdio_register_dev
                0x0000000017873ae8        0x8 arch/arm/cpu/armv7/start.o
 .rel.text.stdio_init_tables
                0x0000000017873af0        0x8 arch/arm/cpu/armv7/start.o
 .rel.text.stdio_add_devices
                0x0000000017873af8       0x48 arch/arm/cpu/armv7/start.o
 .rel.text.cli_simple_parse_line
                0x0000000000000000        0x0 arch/arm/cpu/armv7/start.o
 .rel.text.cli_simple_run_command
                0x0000000000000000        0x0 arch/arm/cpu/armv7/start.o
 .rel.text.cli_simple_loop
                0x0000000000000000        0x0 arch/arm/cpu/armv7/start.o
 .rel.text.do_run
                0x0000000017873b40        0x8 arch/arm/cpu/armv7/start.o
 .rel.text.delete_char.part.0
                0x0000000017873b48       0x10 arch/arm/cpu/armv7/start.o
 .rel.text.cread_add_char
                0x0000000017873b58        0x8 arch/arm/cpu/armv7/start.o
 .rel.text.cli_readline_into_buffer
                0x0000000017873b60       0xb0 arch/arm/cpu/armv7/start.o
 .rel.text.cli_readline
                0x0000000017873c10        0x8 arch/arm/cpu/armv7/start.o
 .rel.text.find_cmd
                0x0000000017873c18       0x10 arch/arm/cpu/armv7/start.o
 .rel.text.cmd_usage
                0x0000000017873c28       0x18 arch/arm/cpu/armv7/start.o
 .rel.text._do_help
                0x0000000017873c40       0x10 arch/arm/cpu/armv7/start.o
 .rel.text.var_complete
                0x0000000017873c50       0x10 arch/arm/cpu/armv7/start.o
 .rel.text.cmd_auto_complete
                0x0000000017873c60       0x48 arch/arm/cpu/armv7/start.o
 .rel.text.cmd_get_data_size
                0x0000000017873ca8        0x8 arch/arm/cpu/armv7/start.o
 .rel.text.cmd_process
                0x0000000017873cb0       0x18 arch/arm/cpu/armv7/start.o
 .rel.text.cmd_process_error
                0x0000000017873cc8        0x8 arch/arm/cpu/armv7/start.o
 .rel.text.srec_decode
                0x0000000017873cd0       0x50 arch/arm/cpu/armv7/start.o
 .rel.text.xyzModem_get_hdr
                0x0000000017873d20       0x30 arch/arm/cpu/armv7/start.o
 .rel.text.xyzModem_stream_open
                0x0000000017873d50       0x10 arch/arm/cpu/armv7/start.o
 .rel.text.xyzModem_stream_read
                0x0000000017873d60        0x8 arch/arm/cpu/armv7/start.o
 .rel.text.xyzModem_stream_close
                0x0000000017873d68       0x20 arch/arm/cpu/armv7/start.o
 .rel.text.xyzModem_stream_terminate
                0x0000000017873d88        0x8 arch/arm/cpu/armv7/start.o
 .rel.text.xyzModem_error
                0x0000000017873d90       0x10 arch/arm/cpu/armv7/start.o
 .rel.rodata.boot_os
                0x0000000017873da0       0x38 arch/arm/cpu/armv7/start.o
 .rel.rodata.uimage_comp
                0x0000000017873dd8       0x70 arch/arm/cpu/armv7/start.o
 .rel.rodata.uimage_os
                0x0000000017873e48       0x98 arch/arm/cpu/armv7/start.o
 .rel.rodata.uimage_arch
                0x0000000017873ee0      0x188 arch/arm/cpu/armv7/start.o
 .rel.rodata.uimage_type
                0x0000000017874068      0x1c8 arch/arm/cpu/armv7/start.o
 .rel.rodata.CSWTCH.28
                0x0000000017874230       0x40 arch/arm/cpu/armv7/start.o
 .rel.data.hash_algo
                0x0000000017874270       0x28 arch/arm/cpu/armv7/start.o
 .rel.data.reserved_list
                0x0000000017874298       0x58 arch/arm/cpu/armv7/start.o
 .rel.u_boot_list_2_cmd_2_showvar
                0x00000000178742f0       0x20 arch/arm/cpu/armv7/start.o
 .rel.data.init_sequence_f
                0x0000000017874310      0x138 arch/arm/cpu/armv7/start.o
 .rel.data.init_sequence_r
                0x0000000017874448       0xe8 arch/arm/cpu/armv7/start.o
 .rel.u_boot_list_2_env_clbk_2_callbacks
                0x0000000017874530       0x10 arch/arm/cpu/armv7/start.o
 .rel.u_boot_list_2_env_clbk_2_flags
                0x0000000017874540       0x10 arch/arm/cpu/armv7/start.o
 .rel.data.env_name_spec
                0x0000000017874550        0x8 arch/arm/cpu/armv7/start.o
 .rel.data.of_busses
                0x0000000000000000        0x0 arch/arm/cpu/armv7/start.o
 .rel.data.usb_scan_list
                0x0000000017874558       0x10 arch/arm/cpu/armv7/start.o
 .rel.u_boot_list_2_blk_driver_2_usb
                0x0000000017874568       0x10 arch/arm/cpu/armv7/start.o
 .rel.data.env_htab
                0x0000000017874578        0x8 arch/arm/cpu/armv7/start.o
 .rel.u_boot_list_2_env_clbk_2_console
                0x0000000017874580       0x10 arch/arm/cpu/armv7/start.o
 .rel.data.av_  0x0000000017874590      0x800 arch/arm/cpu/armv7/start.o
 .rel.u_boot_list_2_env_clbk_2_loadaddr
                0x0000000017874d90       0x10 arch/arm/cpu/armv7/start.o
 .rel.data.stdio_names
                0x0000000017874da0       0x18 arch/arm/cpu/armv7/start.o
 .rel.text.dev_print
                0x0000000017874db8      0x110 arch/arm/cpu/armv7/start.o
 .rel.text.part_init
                0x0000000017874ec8       0x10 arch/arm/cpu/armv7/start.o
 .rel.text.part_print
                0x0000000017874ed8       0xb8 arch/arm/cpu/armv7/start.o
 .rel.text.part_get_info
                0x0000000017874f90       0x10 arch/arm/cpu/armv7/start.o
 .rel.text.blk_get_device_by_str
                0x0000000017874fa0       0x18 arch/arm/cpu/armv7/start.o
 .rel.text.blk_get_device_part_str
                0x0000000017874fb8       0x60 arch/arm/cpu/armv7/start.o
 .rel.text.test_block_type
                0x0000000017875018       0x10 arch/arm/cpu/armv7/start.o
 .rel.text.print_partition_extended
                0x0000000017875028       0x30 arch/arm/cpu/armv7/start.o
 .rel.text.part_print_dos
                0x0000000017875058        0x8 arch/arm/cpu/armv7/start.o
 .rel.text.part_get_info_extended.constprop.4
                0x0000000017875060       0x80 arch/arm/cpu/armv7/start.o
 .rel.u_boot_list_2_part_driver_2_dos
                0x00000000178750e0       0x20 arch/arm/cpu/armv7/start.o
 .rel.text.device_bind
                0x0000000017875100       0x10 arch/arm/cpu/armv7/start.o
 .rel.text.device_probe
                0x0000000017875110       0x10 arch/arm/cpu/armv7/start.o
 .rel.text.dev_get_platdata
                0x0000000017875120       0x10 arch/arm/cpu/armv7/start.o
 .rel.text.dev_get_parent_platdata
                0x0000000000000000        0x0 arch/arm/cpu/armv7/start.o
 .rel.text.dev_get_uclass_platdata
                0x0000000000000000        0x0 arch/arm/cpu/armv7/start.o
 .rel.text.dev_get_priv
                0x0000000017875130       0x10 arch/arm/cpu/armv7/start.o
 .rel.text.dev_get_uclass_priv
                0x0000000000000000        0x0 arch/arm/cpu/armv7/start.o
 .rel.text.dev_get_parent_priv
                0x0000000000000000        0x0 arch/arm/cpu/armv7/start.o
 .rel.text.lists_driver_lookup_name
                0x0000000017875140       0x10 arch/arm/cpu/armv7/start.o
 .rel.text.lists_uclass_lookup
                0x0000000017875150       0x10 arch/arm/cpu/armv7/start.o
 .rel.text.lists_bind_drivers
                0x0000000017875160       0x18 arch/arm/cpu/armv7/start.o
 .rel.text.dm_root
                0x0000000017875178        0x8 arch/arm/cpu/armv7/start.o
 .rel.text.dm_init
                0x0000000017875180       0x10 arch/arm/cpu/armv7/start.o
 .rel.text.dm_scan_platdata
                0x0000000017875190        0x8 arch/arm/cpu/armv7/start.o
 .rel.text.uclass_resolve_seq
                0x0000000017875198        0x8 arch/arm/cpu/armv7/start.o
 .rel.text.device_remove
                0x00000000178751a0       0x20 arch/arm/cpu/armv7/start.o
 .rel.text.show_devices
                0x00000000178751c0       0x30 arch/arm/cpu/armv7/start.o
 .rel.text.dm_dump_all
                0x00000000178751f0       0x10 arch/arm/cpu/armv7/start.o
 .rel.text.dm_dump_uclass
                0x0000000017875200       0x20 arch/arm/cpu/armv7/start.o
 .rel.text.blk_driver_lookup_type
                0x0000000017875220       0x10 arch/arm/cpu/armv7/start.o
 .rel.text.blk_list_devices
                0x0000000000000000        0x0 arch/arm/cpu/armv7/start.o
 .rel.text.blk_print_device_num
                0x0000000000000000        0x0 arch/arm/cpu/armv7/start.o
 .rel.text.blk_show_device
                0x0000000000000000        0x0 arch/arm/cpu/armv7/start.o
 .rel.text.blk_get_devnum_by_typename
                0x0000000017875230       0x10 arch/arm/cpu/armv7/start.o
 .rel.text.finish_access
                0x0000000017875240        0x8 arch/arm/cpu/armv7/start.o
 .rel.text.prepare_access
                0x0000000017875248        0x8 arch/arm/cpu/armv7/start.o
 .rel.text.fuse_read
                0x0000000017875250        0x8 arch/arm/cpu/armv7/start.o
 .rel.text.fuse_sense
                0x0000000017875258        0x8 arch/arm/cpu/armv7/start.o
 .rel.text.fuse_prog
                0x0000000017875260        0x8 arch/arm/cpu/armv7/start.o
 .rel.text.fuse_override
                0x0000000017875268        0x8 arch/arm/cpu/armv7/start.o
 .rel.text.dfu_write_buffer_drain
                0x0000000017875270       0x10 arch/arm/cpu/armv7/start.o
 .rel.text.dfu_free_buf
                0x0000000017875280        0x8 arch/arm/cpu/armv7/start.o
 .rel.text.dfu_get_buf_size
                0x0000000017875288        0x8 arch/arm/cpu/armv7/start.o
 .rel.text.dfu_get_buf
                0x0000000017875290       0x28 arch/arm/cpu/armv7/start.o
 .rel.text.dfu_write_transaction_cleanup
                0x00000000178752b8        0x8 arch/arm/cpu/armv7/start.o
 .rel.text.dfu_flush
                0x00000000178752c0       0x10 arch/arm/cpu/armv7/start.o
 .rel.text.dfu_write
                0x00000000178752d0       0x28 arch/arm/cpu/armv7/start.o
 .rel.text.dfu_read
                0x00000000178752f8       0x40 arch/arm/cpu/armv7/start.o
 .rel.text.dfu_free_entities
                0x0000000017875338       0x10 arch/arm/cpu/armv7/start.o
 .rel.text.dfu_config_entities
                0x0000000017875348       0xa8 arch/arm/cpu/armv7/start.o
 .rel.text.dfu_init_env_entities
                0x00000000178753f0       0x28 arch/arm/cpu/armv7/start.o
 .rel.text.dfu_get_dev_type
                0x0000000017875418        0x8 arch/arm/cpu/armv7/start.o
 .rel.text.dfu_get_layout
                0x0000000017875420        0x8 arch/arm/cpu/armv7/start.o
 .rel.text.dfu_show_entities
                0x0000000017875428       0x18 arch/arm/cpu/armv7/start.o
 .rel.text.dfu_get_alt_number
                0x0000000017875440        0x8 arch/arm/cpu/armv7/start.o
 .rel.text.dfu_get_entity
                0x0000000017875448        0x8 arch/arm/cpu/armv7/start.o
 .rel.text.dfu_get_alt
                0x0000000000000000        0x0 arch/arm/cpu/armv7/start.o
 .rel.text.dfu_write_from_mem_addr
                0x0000000000000000        0x0 arch/arm/cpu/armv7/start.o
 .rel.text.mmc_block_op
                0x0000000017875450       0x30 arch/arm/cpu/armv7/start.o
 .rel.text.mmc_file_op
                0x0000000017875480       0x70 arch/arm/cpu/armv7/start.o
 .rel.text.dfu_free_entity_mmc
                0x00000000178754f0        0x8 arch/arm/cpu/armv7/start.o
 .rel.text.dfu_write_medium_mmc
                0x00000000178754f8       0x20 arch/arm/cpu/armv7/start.o
 .rel.text.dfu_flush_medium_mmc
                0x0000000017875518       0x10 arch/arm/cpu/armv7/start.o
 .rel.text.dfu_get_medium_size_mmc
                0x0000000017875528       0x18 arch/arm/cpu/armv7/start.o
 .rel.text.dfu_read_medium_mmc
                0x0000000017875540       0x20 arch/arm/cpu/armv7/start.o
 .rel.text.dfu_fill_entity_mmc
                0x0000000017875560       0xa0 arch/arm/cpu/armv7/start.o
 .rel.text.dfu_fill_entity_sf
                0x0000000017875600       0x80 arch/arm/cpu/armv7/start.o
 .rel.text.video_drawchars
                0x0000000017875680       0x80 arch/arm/cpu/armv7/start.o
 .rel.text.draw_bitmap
                0x0000000017875700       0x28 arch/arm/cpu/armv7/start.o
 .rel.text.console_newline.constprop.1
                0x0000000017875728       0x30 arch/arm/cpu/armv7/start.o
 .rel.text.video_putc
                0x0000000017875758       0x68 arch/arm/cpu/armv7/start.o
 .rel.text.video_puts
                0x00000000178757c0       0x10 arch/arm/cpu/armv7/start.o
 .rel.text.display_rle8_bitmap
                0x00000000178757d0       0x40 arch/arm/cpu/armv7/start.o
 .rel.text.plot_logo_or_black
                0x0000000017875810       0x50 arch/arm/cpu/armv7/start.o
 .rel.text.do_clrlogo
                0x0000000017875860       0x18 arch/arm/cpu/armv7/start.o
 .rel.text.video_display_bitmap
                0x0000000017875878       0x98 arch/arm/cpu/armv7/start.o
 .rel.text.video_clear
                0x0000000017875910       0x18 arch/arm/cpu/armv7/start.o
 .rel.text.drv_video_init
                0x0000000017875928       0xc0 arch/arm/cpu/armv7/start.o
 .rel.text.video_position_cursor
                0x0000000000000000        0x0 arch/arm/cpu/armv7/start.o
 .rel.text.video_get_pixel_width
                0x0000000000000000        0x0 arch/arm/cpu/armv7/start.o
 .rel.text.video_get_pixel_height
                0x0000000000000000        0x0 arch/arm/cpu/armv7/start.o
 .rel.text.video_get_screen_rows
                0x0000000000000000        0x0 arch/arm/cpu/armv7/start.o
 .rel.text.video_get_screen_columns
                0x0000000000000000        0x0 arch/arm/cpu/armv7/start.o
 .rel.text.mxcfb_map_video_memory
                0x00000000178759e8        0x8 arch/arm/cpu/armv7/start.o
 .rel.text.ipuv3_fb_shutdown
                0x00000000178759f0        0x8 arch/arm/cpu/armv7/start.o
 .rel.text.video_hw_init
                0x00000000178759f8       0x60 arch/arm/cpu/armv7/start.o
 .rel.text.ipuv3_fb_init
                0x0000000017875a58       0x18 arch/arm/cpu/armv7/start.o
 .rel.text.ipu_pixel_clk_set_parent
                0x0000000017875a70       0x18 arch/arm/cpu/armv7/start.o
 .rel.text.ipu_probe
                0x0000000017875a88       0x50 arch/arm/cpu/armv7/start.o
 .rel.text.ipu_init_channel
                0x0000000017875ad8       0x50 arch/arm/cpu/armv7/start.o
 .rel.text.ipu_uninit_channel
                0x0000000017875b28       0x48 arch/arm/cpu/armv7/start.o
 .rel.text.ipu_enable_channel
                0x0000000017875b70       0x10 arch/arm/cpu/armv7/start.o
 .rel.text.ipu_disable_channel
                0x0000000017875b80        0x8 arch/arm/cpu/armv7/start.o
 .rel.text.ipu_init_channel_buffer
                0x0000000017875b88       0x28 arch/arm/cpu/armv7/start.o
 .rel.text.ipu_set_ldb_clock
                0x0000000000000000        0x0 arch/arm/cpu/armv7/start.o
 .rel.text.rgb_to_yuv
                0x0000000017875bb0        0x8 arch/arm/cpu/armv7/start.o
 .rel.text.ipu_dc_link_event
                0x0000000017875bb8       0xb0 arch/arm/cpu/armv7/start.o
 .rel.text.ipu_di_sync_config.constprop.3
                0x0000000017875c68        0x8 arch/arm/cpu/armv7/start.o
 .rel.text.ipu_dmfc_init
                0x0000000017875c70       0x38 arch/arm/cpu/armv7/start.o
 .rel.text.ipu_dmfc_set_wait4eot
                0x0000000017875ca8       0x28 arch/arm/cpu/armv7/start.o
 .rel.text.ipu_dp_init
                0x0000000017875cd0       0x20 arch/arm/cpu/armv7/start.o
 .rel.text.ipu_dp_uninit
                0x0000000017875cf0       0x18 arch/arm/cpu/armv7/start.o
 .rel.text.ipu_dc_init
                0x0000000017875d08       0xb0 arch/arm/cpu/armv7/start.o
 .rel.text.ipu_dp_dc_enable
                0x0000000017875db8      0x100 arch/arm/cpu/armv7/start.o
 .rel.text.ipu_dp_dc_disable
                0x0000000017875eb8      0x140 arch/arm/cpu/armv7/start.o
 .rel.text.ipu_init_sync_panel
                0x0000000017875ff8       0x38 arch/arm/cpu/armv7/start.o
 .rel.text.ipu_disp_set_global_alpha
                0x0000000017876030       0x10 arch/arm/cpu/armv7/start.o
 .rel.text.ipu_disp_set_color_key
                0x0000000017876040       0x28 arch/arm/cpu/armv7/start.o
 .rel.text._input_send_keycodes
                0x0000000000000000        0x0 arch/arm/cpu/armv7/start.o
 .rel.text.input_add_tables
                0x0000000000000000        0x0 arch/arm/cpu/armv7/start.o
 .rel.text.input_stdio_register
                0x0000000000000000        0x0 arch/arm/cpu/armv7/start.o
 .rel.text.imx_thermal_get_temp
                0x0000000017876068       0x10 arch/arm/cpu/armv7/start.o
 .rel.rodata.root_info
                0x0000000017876078        0x8 arch/arm/cpu/armv7/start.o
 .rel.rodata.dp_csc_array
                0x0000000017876080       0x50 arch/arm/cpu/armv7/start.o
 .rel.rodata.kbd_to_ansi364
                0x0000000000000000        0x0 arch/arm/cpu/armv7/start.o
 .rel.rodata.imx_thermal_ops
                0x00000000178760d0        0x8 arch/arm/cpu/armv7/start.o
 .rel.u_boot_list_2_driver_2_root_driver
                0x00000000178760d8        0x8 arch/arm/cpu/armv7/start.o
 .rel.u_boot_list_2_uclass_2_root
                0x00000000178760e0        0x8 arch/arm/cpu/armv7/start.o
 .rel.data.dfu_list
                0x00000000178760e8       0x10 arch/arm/cpu/armv7/start.o
 .rel.u_boot_list_2_cmd_2_clrlogo
                0x00000000178760f8       0x20 arch/arm/cpu/armv7/start.o
 .rel.data.ldb_clk
                0x0000000017876118        0x8 arch/arm/cpu/armv7/start.o
 .rel.data.ipu_clk
                0x0000000017876120       0x18 arch/arm/cpu/armv7/start.o
 .rel.data.pixel_clk
                0x0000000017876138       0x70 arch/arm/cpu/armv7/start.o
 .rel.data.kbd_entry
                0x0000000000000000        0x0 arch/arm/cpu/armv7/start.o
 .rel.u_boot_list_2_uclass_2_thermal
                0x00000000178761a8        0x8 arch/arm/cpu/armv7/start.o
 .rel.u_boot_list_2_driver_2_imx_thermal
                0x00000000178761b0       0x18 arch/arm/cpu/armv7/start.o
 .rel.text.gpio_set_value
                0x00000000178761c8        0x8 arch/arm/cpu/armv7/start.o
 .rel.text.gpio_get_value
                0x00000000178761d0        0x8 arch/arm/cpu/armv7/start.o
 .rel.text.gpio_direction_input
                0x00000000178761d8        0x8 arch/arm/cpu/armv7/start.o
 .rel.text.gpio_direction_output
                0x00000000178761e0        0x8 arch/arm/cpu/armv7/start.o
 .rel.text.i2c_get_adapter
                0x00000000178761e8       0x18 arch/arm/cpu/armv7/start.o
 .rel.text.i2c_init_bus
                0x0000000017876200       0x10 arch/arm/cpu/armv7/start.o
 .rel.text.i2c_set_bus_num
                0x0000000017876210       0x18 arch/arm/cpu/armv7/start.o
 .rel.text.wait_for_sr_state
                0x0000000017876228       0x18 arch/arm/cpu/armv7/start.o
 .rel.text.bus_i2c_set_bus_speed
                0x0000000017876240        0x8 arch/arm/cpu/armv7/start.o
 .rel.text.mxc_i2c_set_bus_speed
                0x0000000017876248        0x8 arch/arm/cpu/armv7/start.o
 .rel.text.i2c_imx_stop
                0x0000000017876250       0x10 arch/arm/cpu/armv7/start.o
 .rel.text.i2c_init_transfer
                0x0000000017876260       0x18 arch/arm/cpu/armv7/start.o
 .rel.text.mxc_i2c_probe
                0x0000000017876278        0x8 arch/arm/cpu/armv7/start.o
 .rel.text.mxc_i2c_read
                0x0000000017876280        0x8 arch/arm/cpu/armv7/start.o
 .rel.text.mxc_i2c_write
                0x0000000017876288        0x8 arch/arm/cpu/armv7/start.o
 .rel.text.i2c_get_base
                0x0000000000000000        0x0 arch/arm/cpu/armv7/start.o
 .rel.text.bus_i2c_init
                0x0000000017876290        0x8 arch/arm/cpu/armv7/start.o
 .rel.u_boot_list_2_i2c_2_mxc0
                0x0000000017876298       0x30 arch/arm/cpu/armv7/start.o
 .rel.u_boot_list_2_i2c_2_mxc1
                0x00000000178762c8       0x30 arch/arm/cpu/armv7/start.o
 .rel.u_boot_list_2_i2c_2_mxc2
                0x00000000178762f8       0x30 arch/arm/cpu/armv7/start.o
 .rel.text.find_mmc_device
                0x0000000017876328       0x10 arch/arm/cpu/armv7/start.o
 .rel.text.mmc_get_next_devnum
                0x0000000017876338        0x8 arch/arm/cpu/armv7/start.o
 .rel.text.get_mmc_num
                0x0000000017876340        0x8 arch/arm/cpu/armv7/start.o
 .rel.text.mmc_do_preinit
                0x0000000017876348        0x8 arch/arm/cpu/armv7/start.o
 .rel.text.mmc_list_init
                0x0000000017876350       0x10 arch/arm/cpu/armv7/start.o
 .rel.text.mmc_list_add
                0x0000000017876360        0x8 arch/arm/cpu/armv7/start.o
 .rel.text.print_mmc_devices
                0x0000000017876368       0x40 arch/arm/cpu/armv7/start.o
 .rel.text.esdhc_send_cmd
                0x00000000178763a8       0x20 arch/arm/cpu/armv7/start.o
 .rel.text.fsl_esdhc_initialize
                0x00000000178763c8       0x20 arch/arm/cpu/armv7/start.o
 .rel.text.fdt_fixup_esdhc
                0x0000000000000000        0x0 arch/arm/cpu/armv7/start.o
 .rel.text.mmc_set_capacity
                0x00000000178763e8       0x40 arch/arm/cpu/armv7/start.o
 .rel.text.mmc_send_status
                0x0000000017876428       0x10 arch/arm/cpu/armv7/start.o
 .rel.text.mmc_bread
                0x0000000017876438       0x10 arch/arm/cpu/armv7/start.o
 .rel.text.mmc_hwpart_config
                0x0000000017876448       0x48 arch/arm/cpu/armv7/start.o
 .rel.text.mmc_startup
                0x0000000017876490       0xa8 arch/arm/cpu/armv7/start.o
 .rel.text.mmc_register
                0x0000000000000000        0x0 arch/arm/cpu/armv7/start.o
 .rel.text.mmc_create
                0x0000000017876538       0x18 arch/arm/cpu/armv7/start.o
 .rel.text.mmc_start_init
                0x0000000017876550       0x10 arch/arm/cpu/armv7/start.o
 .rel.text.mmc_initialize
                0x0000000017876560        0x8 arch/arm/cpu/armv7/start.o
 .rel.text.mmc_berase
                0x0000000017876568       0x10 arch/arm/cpu/armv7/start.o
 .rel.text.mmc_bwrite
                0x0000000017876578       0x18 arch/arm/cpu/armv7/start.o
 .rel.rodata.esdhc_ops
                0x0000000017876590       0x20 arch/arm/cpu/armv7/start.o
 .rel.u_boot_list_2_blk_driver_2_mmc
                0x00000000178765b0       0x18 arch/arm/cpu/armv7/start.o
 .rel.text.__mtd_next_device
                0x0000000000000000        0x0 arch/arm/cpu/armv7/start.o
 .rel.text.del_mtd_device
                0x0000000000000000        0x0 arch/arm/cpu/armv7/start.o
 .rel.text.get_mtd_device
                0x0000000000000000        0x0 arch/arm/cpu/armv7/start.o
 .rel.text.__put_mtd_device
                0x0000000000000000        0x0 arch/arm/cpu/armv7/start.o
 .rel.text.add_mtd_device
                0x0000000000000000        0x0 arch/arm/cpu/armv7/start.o
 .rel.text.mtd_arg_off
                0x00000000178765c8       0x10 arch/arm/cpu/armv7/start.o
 .rel.text.mtd_arg_off_size
                0x00000000178765d8       0x28 arch/arm/cpu/armv7/start.o
 .rel.text.spi_flash_write_common
                0x0000000017876600        0x8 arch/arm/cpu/armv7/start.o
 .rel.text.spi_flash_cmd_erase_ops
                0x0000000017876608        0x8 arch/arm/cpu/armv7/start.o
 .rel.text.spi_flash_cmd_write_ops
                0x0000000017876610        0x8 arch/arm/cpu/armv7/start.o
 .rel.text.spi_flash_scan
                0x0000000017876618       0xa8 arch/arm/cpu/armv7/start.o
 .rel.rodata.spi_flash_params_table
                0x00000000178766c0       0xb8 arch/arm/cpu/armv7/start.o
 .rel.text.fec_phy_write
                0x0000000017876778        0x8 arch/arm/cpu/armv7/start.o
 .rel.text.fec_phy_read
                0x0000000017876780        0x8 arch/arm/cpu/armv7/start.o
 .rel.text.fec_send
                0x0000000017876788        0x8 arch/arm/cpu/armv7/start.o
 .rel.text.fec_init
                0x0000000017876790        0x8 arch/arm/cpu/armv7/start.o
 .rel.text.fec_recv
                0x0000000017876798       0x10 arch/arm/cpu/armv7/start.o
 .rel.text.fec_probe
                0x00000000178767a8       0x68 arch/arm/cpu/armv7/start.o
 .rel.text.fec_get_miibus
                0x0000000017876810       0x30 arch/arm/cpu/armv7/start.o
 .rel.text.genphy_update_link
                0x0000000017876840       0x28 arch/arm/cpu/armv7/start.o
 .rel.text.phy_register
                0x0000000017876868        0x8 arch/arm/cpu/armv7/start.o
 .rel.text.get_phy_device_by_mask
                0x0000000017876870       0x18 arch/arm/cpu/armv7/start.o
 .rel.text.phy_reset
                0x0000000017876888        0x8 arch/arm/cpu/armv7/start.o
 .rel.text.phy_connect_dev
                0x0000000017876890        0x8 arch/arm/cpu/armv7/start.o
 .rel.text.phy_connect
                0x0000000000000000        0x0 arch/arm/cpu/armv7/start.o
 .rel.text.phy_get_interface_by_name
                0x0000000000000000        0x0 arch/arm/cpu/armv7/start.o
 .rel.text.phy_atheros_init
                0x0000000017876898       0x18 arch/arm/cpu/armv7/start.o
 .rel.rodata.phy_interface_strings
                0x0000000000000000        0x0 arch/arm/cpu/armv7/start.o
 .rel.data.genphy_driver
                0x00000000178768b0       0x20 arch/arm/cpu/armv7/start.o
 .rel.data.phy_drivers
                0x00000000178768d0       0x10 arch/arm/cpu/armv7/start.o
 .rel.data.AR8021_driver
                0x00000000178768e0       0x20 arch/arm/cpu/armv7/start.o
 .rel.data.AR8031_driver
                0x0000000017876900       0x20 arch/arm/cpu/armv7/start.o
 .rel.data.AR8035_driver
                0x0000000017876920       0x20 arch/arm/cpu/armv7/start.o
 .rel.text.pci_get_hose_head
                0x0000000017876940        0x8 arch/arm/cpu/armv7/start.o
 .rel.text.pci_register_hose
                0x0000000017876948        0x8 arch/arm/cpu/armv7/start.o
 .rel.text.pci_bus_to_hose
                0x0000000017876950        0x8 arch/arm/cpu/armv7/start.o
 .rel.text.pci_hose_scan_bus
                0x0000000017876958       0x18 arch/arm/cpu/armv7/start.o
 .rel.text.pci_hose_scan
                0x0000000017876970        0x8 arch/arm/cpu/armv7/start.o
 .rel.text.pci_init
                0x0000000017876978        0x8 arch/arm/cpu/armv7/start.o
 .rel.text.pci_class_str
                0x0000000017876980       0x98 arch/arm/cpu/armv7/start.o
 .rel.text.pci_hose_bus_to_phys
                0x0000000000000000        0x0 arch/arm/cpu/armv7/start.o
 .rel.text.pci_hose_phys_to_bus
                0x0000000000000000        0x0 arch/arm/cpu/armv7/start.o
 .rel.text.imx_pcie_read_config
                0x0000000017876a18       0x18 arch/arm/cpu/armv7/start.o
 .rel.text.imx_pcie_write_config
                0x0000000017876a30       0x18 arch/arm/cpu/armv7/start.o
 .rel.text.imx_pcie_init
                0x0000000017876a48       0x48 arch/arm/cpu/armv7/start.o
 .rel.text.check_reg
                0x0000000017876a90        0x8 arch/arm/cpu/armv7/start.o
 .rel.text.pmic_alloc
                0x0000000017876a98       0x18 arch/arm/cpu/armv7/start.o
 .rel.text.pmic_get
                0x0000000017876ab0        0x8 arch/arm/cpu/armv7/start.o
 .rel.text.power_get_interface
                0x0000000017876ab8        0x8 arch/arm/cpu/armv7/start.o
 .rel.text.do_pmic
                0x0000000017876ac0       0x98 arch/arm/cpu/armv7/start.o
 .rel.text.pmic_reg_write
                0x0000000017876b58       0x10 arch/arm/cpu/armv7/start.o
 .rel.text.pmic_reg_read
                0x0000000017876b68       0x10 arch/arm/cpu/armv7/start.o
 .rel.text.pmic_probe
                0x0000000017876b78        0x8 arch/arm/cpu/armv7/start.o
 .rel.u_boot_list_2_cmd_2_pmic
                0x0000000017876b80       0x20 arch/arm/cpu/armv7/start.o
 .rel.data.pmic_list
                0x0000000017876ba0       0x10 arch/arm/cpu/armv7/start.o
 .rel.text.power_pfuze100_init
                0x0000000017876bb0       0x18 arch/arm/cpu/armv7/start.o
 .rel.text.get_current
                0x0000000017876bc8       0x10 arch/arm/cpu/armv7/start.o
 .rel.text.serial_register
                0x0000000017876bd8        0x8 arch/arm/cpu/armv7/start.o
 .rel.text.serial_stdio_init
                0x0000000017876be0       0x38 arch/arm/cpu/armv7/start.o
 .rel.text.serial_assign
                0x0000000017876c18       0x10 arch/arm/cpu/armv7/start.o
 .rel.text.serial_reinit_all
                0x0000000000000000        0x0 arch/arm/cpu/armv7/start.o
 .rel.text.on_baudrate
                0x0000000017876c28       0x18 arch/arm/cpu/armv7/start.o
 .rel.text.mxc_serial_initialize
                0x0000000017876c40        0x8 arch/arm/cpu/armv7/start.o
 .rel.text.default_serial_console
                0x0000000017876c48        0x8 arch/arm/cpu/armv7/start.o
 .rel.u_boot_list_2_env_clbk_2_baudrate
                0x0000000017876c50       0x10 arch/arm/cpu/armv7/start.o
 .rel.data.mxc_serial_drv
                0x0000000017876c60       0x30 arch/arm/cpu/armv7/start.o
 .rel.text.spi_set_wordlen
                0x0000000000000000        0x0 arch/arm/cpu/armv7/start.o
 .rel.text.spi_xchg_single
                0x0000000017876c90        0x8 arch/arm/cpu/armv7/start.o
 .rel.text.spi_setup_slave
                0x0000000017876c98       0x20 arch/arm/cpu/armv7/start.o
 .rel.text.spi_claim_bus
                0x0000000017876cb8       0x10 arch/arm/cpu/armv7/start.o
 .rel.text.is_eth_dev_on_usb_host
                0x0000000000000000        0x0 arch/arm/cpu/armv7/start.o
 .rel.text.usb_host_eth_scan
                0x0000000017876cc8       0x40 arch/arm/cpu/armv7/start.o
 .rel.text.asix_init
                0x0000000017876d08       0x18 arch/arm/cpu/armv7/start.o
 .rel.text.asix_eth_before_probe
                0x0000000017876d20        0x8 arch/arm/cpu/armv7/start.o
 .rel.text.asix_eth_probe
                0x0000000017876d28        0x8 arch/arm/cpu/armv7/start.o
 .rel.text.asix_eth_get_info
                0x0000000017876d30       0x40 arch/arm/cpu/armv7/start.o
 .rel.rodata.prob_dev
                0x0000000017876d70       0x18 arch/arm/cpu/armv7/start.o
 .rel.text.usb_ep_autoconfig
                0x0000000017876d88        0x8 arch/arm/cpu/armv7/start.o
 .rel.text.usb_ep_autoconfig_reset
                0x0000000017876d90        0x8 arch/arm/cpu/armv7/start.o
 .rel.text.ci_ep_free_request
                0x0000000017876d98        0x8 arch/arm/cpu/armv7/start.o
 .rel.text.ci_ep_alloc_request
                0x0000000017876da0        0x8 arch/arm/cpu/armv7/start.o
 .rel.text.ci_flush_qtd
                0x0000000017876da8        0x8 arch/arm/cpu/armv7/start.o
 .rel.text.ci_flush_qh
                0x0000000017876db0        0x8 arch/arm/cpu/armv7/start.o
 .rel.text.stop_activity
                0x0000000017876db8        0x8 arch/arm/cpu/armv7/start.o
 .rel.text.ep_enable
                0x0000000017876dc0        0x8 arch/arm/cpu/armv7/start.o
 .rel.text.ci_ep_enable
                0x0000000017876dc8        0x8 arch/arm/cpu/armv7/start.o
 .rel.text.ci_ep_submit_next_request
                0x0000000017876dd0        0x8 arch/arm/cpu/armv7/start.o
 .rel.text.ci_ep_queue
                0x0000000017876dd8       0x10 arch/arm/cpu/armv7/start.o
 .rel.text.udc_irq
                0x0000000017876de8       0x40 arch/arm/cpu/armv7/start.o
 .rel.text.usb_gadget_handle_interrupts
                0x0000000017876e28        0x8 arch/arm/cpu/armv7/start.o
 .rel.text.udc_disconnect
                0x0000000017876e30        0x8 arch/arm/cpu/armv7/start.o
 .rel.text.ci_pullup
                0x0000000017876e38        0x8 arch/arm/cpu/armv7/start.o
 .rel.text.usb_gadget_register_driver
                0x0000000017876e40       0x38 arch/arm/cpu/armv7/start.o
 .rel.text.usb_gadget_unregister_driver
                0x0000000017876e78        0x8 arch/arm/cpu/armv7/start.o
 .rel.text.dfu_usb_get_reset
                0x0000000017876e80        0x8 arch/arm/cpu/armv7/start.o
 .rel.text.composite_suspend
                0x0000000017876e88        0x8 arch/arm/cpu/armv7/start.o
 .rel.text.composite_resume
                0x0000000017876e90        0x8 arch/arm/cpu/armv7/start.o
 .rel.text.composite_unbind
                0x0000000017876e98       0x28 arch/arm/cpu/armv7/start.o
 .rel.text.composite_bind
                0x0000000017876ec0       0x10 arch/arm/cpu/armv7/start.o
 .rel.text.g_dnl_do_config
                0x0000000017876ed0       0x10 arch/arm/cpu/armv7/start.o
 .rel.text.composite_disconnect
                0x0000000017876ee0        0x8 arch/arm/cpu/armv7/start.o
 .rel.text.composite_setup
                0x0000000017876ee8       0xb8 arch/arm/cpu/armv7/start.o
 .rel.text.usb_composite_register
                0x0000000017876fa0       0x18 arch/arm/cpu/armv7/start.o
 .rel.text.usb_composite_unregister
                0x0000000017876fb8       0x10 arch/arm/cpu/armv7/start.o
 .rel.text.g_dnl_set_serialnumber
                0x0000000017876fc8        0x8 arch/arm/cpu/armv7/start.o
 .rel.text.g_dnl_bind
                0x0000000017876fd0       0x28 arch/arm/cpu/armv7/start.o
 .rel.text.g_dnl_detach
                0x0000000017876ff8        0x8 arch/arm/cpu/armv7/start.o
 .rel.text.g_dnl_trigger_detach
                0x0000000017877000        0x8 arch/arm/cpu/armv7/start.o
 .rel.text.g_dnl_clear_detach
                0x0000000017877008        0x8 arch/arm/cpu/armv7/start.o
 .rel.text.g_dnl_register
                0x0000000017877010       0x18 arch/arm/cpu/armv7/start.o
 .rel.text.g_dnl_unregister
                0x0000000017877028        0x8 arch/arm/cpu/armv7/start.o
 .rel.text.dfu_add
                0x0000000017877030       0x58 arch/arm/cpu/armv7/start.o
 .rel.text.dfu_handle
                0x0000000017877088       0x10 arch/arm/cpu/armv7/start.o
 .rel.text.dnload_request_flush
                0x0000000017877098        0x8 arch/arm/cpu/armv7/start.o
 .rel.text.dfu_bind
                0x00000000178770a0       0x18 arch/arm/cpu/armv7/start.o
 .rel.text.handle_getstatus
                0x00000000178770b8       0x28 arch/arm/cpu/armv7/start.o
 .rel.text.state_dfu_manifest_sync
                0x00000000178770e0        0x8 arch/arm/cpu/armv7/start.o
 .rel.text.state_dfu_dnload_idle
                0x00000000178770e8       0x38 arch/arm/cpu/armv7/start.o
 .rel.text.state_app_idle
                0x0000000017877120        0x8 arch/arm/cpu/armv7/start.o
 .rel.text.state_dfu_upload_idle
                0x0000000017877128       0x28 arch/arm/cpu/armv7/start.o
 .rel.text.state_dfu_manifest
                0x0000000017877150        0x8 arch/arm/cpu/armv7/start.o
 .rel.text.state_dfu_idle
                0x0000000017877158       0x48 arch/arm/cpu/armv7/start.o
 .rel.text.fsg_setup
                0x00000000178771a0       0x10 arch/arm/cpu/armv7/start.o
 .rel.text.sleep_thread.isra.19
                0x00000000178771b0       0x68 arch/arm/cpu/armv7/start.o
 .rel.text.do_read
                0x0000000017877218       0x18 arch/arm/cpu/armv7/start.o
 .rel.text.do_write
                0x0000000017877230       0x20 arch/arm/cpu/armv7/start.o
 .rel.text.send_status
                0x0000000017877250       0x10 arch/arm/cpu/armv7/start.o
 .rel.text.check_command.isra.20
                0x0000000017877260       0x10 arch/arm/cpu/armv7/start.o
 .rel.text.fsg_add
                0x0000000017877270       0x80 arch/arm/cpu/armv7/start.o
 .rel.text.do_set_interface
                0x00000000178772f0       0x30 arch/arm/cpu/armv7/start.o
 .rel.text.fsg_main_thread
                0x0000000017877320       0x70 arch/arm/cpu/armv7/start.o
 .rel.text.fsg_bind
                0x0000000017877390       0x38 arch/arm/cpu/armv7/start.o
 .rel.text.fsg_init
                0x00000000178773c8       0x10 arch/arm/cpu/armv7/start.o
 .rel.text.rx_bytes_expected
                0x00000000178773d8       0x10 arch/arm/cpu/armv7/start.o
 .rel.text.fastboot_unbind
                0x00000000178773e8        0x8 arch/arm/cpu/armv7/start.o
 .rel.text.fastboot_add
                0x00000000178773f0       0x38 arch/arm/cpu/armv7/start.o
 .rel.text.fastboot_set_alt
                0x0000000017877428       0x50 arch/arm/cpu/armv7/start.o
 .rel.text.fastboot_complete
                0x0000000017877478        0x8 arch/arm/cpu/armv7/start.o
 .rel.text.do_bootm_on_complete
                0x0000000017877480       0x20 arch/arm/cpu/armv7/start.o
 .rel.text.fastboot_tx_write_str
                0x00000000178774a0       0x10 arch/arm/cpu/armv7/start.o
 .rel.text.rx_handler_command
                0x00000000178774b0       0x38 arch/arm/cpu/armv7/start.o
 .rel.text.cb_oem
                0x00000000178774e8       0x18 arch/arm/cpu/armv7/start.o
 .rel.text.cb_continue
                0x0000000017877500       0x18 arch/arm/cpu/armv7/start.o
 .rel.text.cb_boot
                0x0000000017877518       0x18 arch/arm/cpu/armv7/start.o
 .rel.text.cb_download
                0x0000000017877530       0x40 arch/arm/cpu/armv7/start.o
 .rel.text.rx_handler_dl_image
                0x0000000017877570       0x30 arch/arm/cpu/armv7/start.o
 .rel.text.cb_getvar
                0x00000000178775a0       0xa0 arch/arm/cpu/armv7/start.o
 .rel.text.fastboot_bind
                0x0000000017877640       0x48 arch/arm/cpu/armv7/start.o
 .rel.text.fastboot_fail
                0x0000000000000000        0x0 arch/arm/cpu/armv7/start.o
 .rel.text.fastboot_okay
                0x0000000000000000        0x0 arch/arm/cpu/armv7/start.o
 .rel.text.cb_reboot
                0x0000000017877688       0x28 arch/arm/cpu/armv7/start.o
 .rel.rodata.ci_ep_init
                0x00000000178776b0       0x50 arch/arm/cpu/armv7/start.o
 .rel.rodata.dfu_state
                0x0000000017877700       0x50 arch/arm/cpu/armv7/start.o
 .rel.rodata.cmd_dispatch_info
                0x0000000017877750       0x60 arch/arm/cpu/armv7/start.o
 .rel.data.ci_ep_ops
                0x00000000178777b0       0x30 arch/arm/cpu/armv7/start.o
 .rel.data.ci_udc_ops
                0x00000000178777e0        0x8 arch/arm/cpu/armv7/start.o
 .rel.data.controller
                0x00000000178777e8       0x10 arch/arm/cpu/armv7/start.o
 .rel.data.g_dnl_string_tab
                0x00000000178777f8        0x8 arch/arm/cpu/armv7/start.o
 .rel.data.g_dnl_composite_strings
                0x0000000017877800        0x8 arch/arm/cpu/armv7/start.o
 .rel.data.g_dnl_driver
                0x0000000017877808       0x20 arch/arm/cpu/armv7/start.o
 .rel.data.composite_driver
                0x0000000017877828       0x38 arch/arm/cpu/armv7/start.o
 .rel.data.g_dnl_string_defs
                0x0000000017877860       0x18 arch/arm/cpu/armv7/start.o
 .rel.data.dfu_strings
                0x0000000017877878        0x8 arch/arm/cpu/armv7/start.o
 .rel.data.dfu_generic_strings
                0x0000000017877880        0x8 arch/arm/cpu/armv7/start.o
 .rel.u_boot_list_2_g_dnl_bind_callbacks_2___usb_function_name_usb_dnl_dfu
                0x0000000017877888       0x10 arch/arm/cpu/armv7/start.o
 .rel.data.dfu_runtime_descs
                0x0000000017877898        0x8 arch/arm/cpu/armv7/start.o
 .rel.data.stringtab_dfu_generic
                0x00000000178778a0        0x8 arch/arm/cpu/armv7/start.o
 .rel.data.strings_dfu_generic
                0x00000000178778a8        0x8 arch/arm/cpu/armv7/start.o
 .rel.u_boot_list_2_g_dnl_bind_callbacks_2___usb_function_name_usb_dnl_ums
                0x00000000178778b0       0x10 arch/arm/cpu/armv7/start.o
 .rel.data.fsg_stringtab
                0x00000000178778c0        0x8 arch/arm/cpu/armv7/start.o
 .rel.data.fsg_fs_function
                0x00000000178778c8       0x18 arch/arm/cpu/armv7/start.o
 .rel.data.fsg_hs_function
                0x00000000178778e0       0x18 arch/arm/cpu/armv7/start.o
 .rel.data.fsg_strings
                0x00000000178778f8        0x8 arch/arm/cpu/armv7/start.o
 .rel.data.fsg_strings_array
                0x0000000017877900        0x8 arch/arm/cpu/armv7/start.o
 .rel.data.fb_fs_function
                0x0000000017877908       0x18 arch/arm/cpu/armv7/start.o
 .rel.data.fastboot_string_defs
                0x0000000017877920        0x8 arch/arm/cpu/armv7/start.o
 .rel.data.fastboot_strings
                0x0000000017877928        0x8 arch/arm/cpu/armv7/start.o
 .rel.data.stringtab_fastboot
                0x0000000017877930        0x8 arch/arm/cpu/armv7/start.o
 .rel.u_boot_list_2_g_dnl_bind_callbacks_2___usb_function_name_usb_dnl_fastboot
                0x0000000017877938       0x10 arch/arm/cpu/armv7/start.o
 .rel.data.fb_hs_function
                0x0000000017877948       0x18 arch/arm/cpu/armv7/start.o
 .rel.text.ehci_shutdown
                0x0000000017877960        0x8 arch/arm/cpu/armv7/start.o
 .rel.text.ehci_td_buffer
                0x0000000017877968        0x8 arch/arm/cpu/armv7/start.o
 .rel.text.disable_periodic.isra.2
                0x0000000017877970        0x8 arch/arm/cpu/armv7/start.o
 .rel.text.enable_periodic.isra.3
                0x0000000017877978        0x8 arch/arm/cpu/armv7/start.o
 .rel.text._ehci_destroy_int_queue
                0x0000000017877980        0x8 arch/arm/cpu/armv7/start.o
 .rel.text.ehci_submit_async
                0x0000000017877988       0x30 arch/arm/cpu/armv7/start.o
 .rel.text._ehci_create_int_queue.isra.6
                0x00000000178779b8       0x10 arch/arm/cpu/armv7/start.o
 .rel.text.ehci_set_controller_priv
                0x0000000000000000        0x0 arch/arm/cpu/armv7/start.o
 .rel.text.ehci_get_controller_priv
                0x0000000000000000        0x0 arch/arm/cpu/armv7/start.o
 .rel.text.usb_lowlevel_stop
                0x00000000178779c8        0x8 arch/arm/cpu/armv7/start.o
 .rel.text.usb_lowlevel_init
                0x00000000178779d0       0x40 arch/arm/cpu/armv7/start.o
 .rel.text.submit_control_msg
                0x0000000017877a10       0x28 arch/arm/cpu/armv7/start.o
 .rel.text.submit_int_msg
                0x0000000017877a38        0x8 arch/arm/cpu/armv7/start.o
 .rel.text.usb_phy_mode
                0x0000000017877a40        0x8 arch/arm/cpu/armv7/start.o
 .rel.text.ehci_hcd_init
                0x0000000017877a48        0x8 arch/arm/cpu/armv7/start.o
 .rel.rodata.default_ehci_ops
                0x0000000000000000        0x0 arch/arm/cpu/armv7/start.o
 .rel.text.fs_probe_unsupported
                0x0000000017877a50        0x8 arch/arm/cpu/armv7/start.o
 .rel.text.fs_get_info
                0x0000000017877a58        0x8 arch/arm/cpu/armv7/start.o
 .rel.text.fs_close
                0x0000000017877a60        0x8 arch/arm/cpu/armv7/start.o
 .rel.text.fs_set_blk_dev
                0x0000000017877a68       0x20 arch/arm/cpu/armv7/start.o
 .rel.text.fs_uuid
                0x0000000000000000        0x0 arch/arm/cpu/armv7/start.o
 .rel.text.fs_ls
                0x0000000017877a88        0x8 arch/arm/cpu/armv7/start.o
 .rel.text.fs_exists
                0x0000000017877a90        0x8 arch/arm/cpu/armv7/start.o
 .rel.text.fs_size
                0x0000000017877a98        0x8 arch/arm/cpu/armv7/start.o
 .rel.text.fs_read
                0x0000000017877aa0       0x10 arch/arm/cpu/armv7/start.o
 .rel.text.fs_write
                0x0000000017877ab0       0x10 arch/arm/cpu/armv7/start.o
 .rel.text.do_size
                0x0000000017877ac0        0x8 arch/arm/cpu/armv7/start.o
 .rel.text.do_load
                0x0000000017877ac8       0x50 arch/arm/cpu/armv7/start.o
 .rel.text.do_ls
                0x0000000017877b18        0x8 arch/arm/cpu/armv7/start.o
 .rel.text.do_save
                0x0000000017877b20       0x28 arch/arm/cpu/armv7/start.o
 .rel.text.do_fs_uuid
                0x0000000000000000        0x0 arch/arm/cpu/armv7/start.o
 .rel.text.do_fs_type
                0x0000000017877b48       0x10 arch/arm/cpu/armv7/start.o
 .rel.text.get_fs
                0x0000000017877b58        0x8 arch/arm/cpu/armv7/start.o
 .rel.text.ext4fs_free_node
                0x0000000017877b60        0x8 arch/arm/cpu/armv7/start.o
 .rel.text.ext4fs_read_file
                0x0000000017877b68        0x8 arch/arm/cpu/armv7/start.o
 .rel.text.ext4fs_ls
                0x0000000017877b70       0x10 arch/arm/cpu/armv7/start.o
 .rel.text.ext4fs_read
                0x0000000017877b80       0x10 arch/arm/cpu/armv7/start.o
 .rel.text.ext4_read_file
                0x0000000017877b90       0x10 arch/arm/cpu/armv7/start.o
 .rel.text.ext4fs_uuid
                0x0000000017877ba0        0x8 arch/arm/cpu/armv7/start.o
 .rel.text.put_ext4
                0x0000000017877ba8       0x20 arch/arm/cpu/armv7/start.o
 .rel.text.ext4fs_set_block_bmap
                0x0000000017877bc8        0x8 arch/arm/cpu/armv7/start.o
 .rel.text.ext4fs_reset_block_bmap
                0x0000000017877bd0        0x8 arch/arm/cpu/armv7/start.o
 .rel.text.ext4fs_set_inode_bmap
                0x0000000017877bd8        0x8 arch/arm/cpu/armv7/start.o
 .rel.text.ext4fs_reset_inode_bmap
                0x0000000017877be0        0x8 arch/arm/cpu/armv7/start.o
 .rel.text.ext4fs_get_new_blk_no
                0x0000000017877be8       0x10 arch/arm/cpu/armv7/start.o
 .rel.text.ext4fs_get_new_inode_no
                0x0000000017877bf8       0x10 arch/arm/cpu/armv7/start.o
 .rel.text.ext4fs_allocate_blocks
                0x0000000017877c08       0x30 arch/arm/cpu/armv7/start.o
 .rel.text.ext4fs_iget
                0x0000000017877c38        0x8 arch/arm/cpu/armv7/start.o
 .rel.text.read_allocated_block
                0x0000000017877c40       0xb8 arch/arm/cpu/armv7/start.o
 .rel.text.ext4fs_update_parent_dentry
                0x0000000017877cf8       0x30 arch/arm/cpu/armv7/start.o
 .rel.text.ext4fs_get_parent_inode_num
                0x0000000017877d28       0x28 arch/arm/cpu/armv7/start.o
 .rel.text.ext4fs_filename_check
                0x0000000017877d50       0x10 arch/arm/cpu/armv7/start.o
 .rel.text.ext4fs_reinit_global
                0x0000000017877d60       0x48 arch/arm/cpu/armv7/start.o
 .rel.text.ext4fs_close
                0x0000000017877da8       0x10 arch/arm/cpu/armv7/start.o
 .rel.text.ext4fs_iterate_dir
                0x0000000017877db8       0x30 arch/arm/cpu/armv7/start.o
 .rel.text.ext4fs_find_file1
                0x0000000017877de8       0x10 arch/arm/cpu/armv7/start.o
 .rel.text.ext4fs_find_file
                0x0000000017877df8        0x8 arch/arm/cpu/armv7/start.o
 .rel.text.ext4fs_open
                0x0000000017877e00       0x10 arch/arm/cpu/armv7/start.o
 .rel.text.ext4fs_mount
                0x0000000017877e10       0x10 arch/arm/cpu/armv7/start.o
 .rel.text.ext4fs_set_blk_dev
                0x0000000017877e20       0x18 arch/arm/cpu/armv7/start.o
 .rel.text.ext4fs_devread
                0x0000000017877e38       0x40 arch/arm/cpu/armv7/start.o
 .rel.text.ext4fs_update
                0x0000000017877e78       0x10 arch/arm/cpu/armv7/start.o
 .rel.text.ext4fs_get_bgdtable
                0x0000000017877e88        0x8 arch/arm/cpu/armv7/start.o
 .rel.text.ext4fs_deinit
                0x0000000017877e90        0x8 arch/arm/cpu/armv7/start.o
 .rel.text.ext4fs_init
                0x0000000017877e98       0x10 arch/arm/cpu/armv7/start.o
 .rel.text.ext4fs_write
                0x0000000017877ea8       0x68 arch/arm/cpu/armv7/start.o
 .rel.text.ext4_write_file
                0x0000000017877f10       0x10 arch/arm/cpu/armv7/start.o
 .rel.text.ext4fs_dump_metadata
                0x0000000017877f20        0x8 arch/arm/cpu/armv7/start.o
 .rel.text.ext4fs_free_journal
                0x0000000017877f28       0x28 arch/arm/cpu/armv7/start.o
 .rel.text.ext4fs_log_gdt
                0x0000000017877f50       0x10 arch/arm/cpu/armv7/start.o
 .rel.text.ext4fs_log_journal
                0x0000000017877f60       0x20 arch/arm/cpu/armv7/start.o
 .rel.text.ext4fs_put_metadata
                0x0000000017877f80       0x20 arch/arm/cpu/armv7/start.o
 .rel.text.print_revoke_blks
                0x0000000000000000        0x0 arch/arm/cpu/armv7/start.o
 .rel.text.ext4fs_push_revoke_blk
                0x0000000017877fa0       0x28 arch/arm/cpu/armv7/start.o
 .rel.text.ext4fs_free_revoke_blks
                0x0000000017877fc8       0x18 arch/arm/cpu/armv7/start.o
 .rel.text.check_blknr_for_revoke
                0x0000000017877fe0        0x8 arch/arm/cpu/armv7/start.o
 .rel.text.recover_transaction
                0x0000000017877fe8       0x10 arch/arm/cpu/armv7/start.o
 .rel.text.print_jrnl_status
                0x0000000017877ff8       0x10 arch/arm/cpu/armv7/start.o
 .rel.text.ext4fs_check_journal_state
                0x0000000017878008       0x18 arch/arm/cpu/armv7/start.o
 .rel.text.ext4fs_init_journal
                0x0000000017878020       0x38 arch/arm/cpu/armv7/start.o
 .rel.text.ext4fs_update_journal
                0x0000000017878058       0x28 arch/arm/cpu/armv7/start.o
 .rel.text.ext2fs_crc16
                0x0000000017878080        0x8 arch/arm/cpu/armv7/start.o
 .rel.text.downcase
                0x0000000017878088        0x8 arch/arm/cpu/armv7/start.o
 .rel.text.disk_read
                0x0000000017878090       0x10 arch/arm/cpu/armv7/start.o
 .rel.text.get_cluster
                0x00000000178780a0        0x8 arch/arm/cpu/armv7/start.o
 .rel.text.read_bootsectandvi
                0x00000000178780a8       0x20 arch/arm/cpu/armv7/start.o
 .rel.text.get_vfatname
                0x00000000178780c8       0x10 arch/arm/cpu/armv7/start.o
 .rel.text.fat_set_blk_dev
                0x00000000178780d8       0x28 arch/arm/cpu/armv7/start.o
 .rel.text.fat_register_device
                0x0000000000000000        0x0 arch/arm/cpu/armv7/start.o
 .rel.text.do_fat_read_at
                0x0000000017878100       0x58 arch/arm/cpu/armv7/start.o
 .rel.text.file_fat_detectfs
                0x0000000017878158       0xb0 arch/arm/cpu/armv7/start.o
 .rel.text.file_fat_read_at
                0x0000000017878208        0x8 arch/arm/cpu/armv7/start.o
 .rel.text.fat_read_file
                0x0000000017878210        0x8 arch/arm/cpu/armv7/start.o
 .rel.text.file_getfsname
                0x0000000000000000        0x0 arch/arm/cpu/armv7/start.o
 .rel.text.file_cd
                0x0000000000000000        0x0 arch/arm/cpu/armv7/start.o
 .rel.text.file_detectfs
                0x0000000000000000        0x0 arch/arm/cpu/armv7/start.o
 .rel.text.file_ls
                0x0000000000000000        0x0 arch/arm/cpu/armv7/start.o
 .rel.text.file_read
                0x0000000000000000        0x0 arch/arm/cpu/armv7/start.o
 .rel.rodata.filesystems
                0x0000000000000000        0x0 arch/arm/cpu/armv7/start.o
 .rel.data.fstypes
                0x0000000017878218       0xd8 arch/arm/cpu/armv7/start.o
 .rel.text.efi_load_pe
                0x00000000178782f0       0x88 arch/arm/cpu/armv7/start.o
 .rel.text.efi_save_gd
                0x0000000017878378        0x8 arch/arm/cpu/armv7/start.o
 .rel.text.efi_restore_gd
                0x0000000017878380       0x10 arch/arm/cpu/armv7/start.o
 .rel.text.efi_allocate_pages_ext
                0x0000000017878390        0x8 arch/arm/cpu/armv7/start.o
 .rel.text.efi_free_pages_ext
                0x0000000017878398        0x8 arch/arm/cpu/armv7/start.o
 .rel.text.efi_get_memory_map_ext
                0x00000000178783a0        0x8 arch/arm/cpu/armv7/start.o
 .rel.text.efi_calculate_crc32
                0x00000000178783a8        0x8 arch/arm/cpu/armv7/start.o
 .rel.text.efi_uninstall_multiple_protocol_interfaces
                0x00000000178783b0        0x8 arch/arm/cpu/armv7/start.o
 .rel.text.efi_install_multiple_protocol_interfaces
                0x00000000178783b8        0x8 arch/arm/cpu/armv7/start.o
 .rel.text.efi_locate_protocol
                0x00000000178783c0       0x10 arch/arm/cpu/armv7/start.o
 .rel.text.efi_locate_handle_buffer
                0x00000000178783d0        0x8 arch/arm/cpu/armv7/start.o
 .rel.text.efi_protocols_per_handle
                0x00000000178783d8        0x8 arch/arm/cpu/armv7/start.o
 .rel.text.efi_open_protocol_information
                0x00000000178783e0        0x8 arch/arm/cpu/armv7/start.o
 .rel.text.efi_close_protocol
                0x00000000178783e8        0x8 arch/arm/cpu/armv7/start.o
 .rel.text.efi_open_protocol
                0x00000000178783f0       0x10 arch/arm/cpu/armv7/start.o
 .rel.text.efi_disconnect_controller
                0x0000000017878400        0x8 arch/arm/cpu/armv7/start.o
 .rel.text.efi_connect_controller
                0x0000000017878408        0x8 arch/arm/cpu/armv7/start.o
 .rel.text.efi_set_watchdog_timer
                0x0000000017878410        0x8 arch/arm/cpu/armv7/start.o
 .rel.text.efi_stall
                0x0000000017878418        0x8 arch/arm/cpu/armv7/start.o
 .rel.text.efi_get_next_monotonic_count
                0x0000000017878420       0x10 arch/arm/cpu/armv7/start.o
 .rel.text.efi_exit_boot_services
                0x0000000017878430       0x10 arch/arm/cpu/armv7/start.o
 .rel.text.efi_unload_image
                0x0000000017878440       0x10 arch/arm/cpu/armv7/start.o
 .rel.text.efi_exit
                0x0000000017878450        0x8 arch/arm/cpu/armv7/start.o
 .rel.text.efi_start_image
                0x0000000017878458       0x18 arch/arm/cpu/armv7/start.o
 .rel.text.efi_load_image
                0x0000000017878470       0x18 arch/arm/cpu/armv7/start.o
 .rel.text.efi_install_configuration_table
                0x0000000017878488       0x10 arch/arm/cpu/armv7/start.o
 .rel.text.efi_locate_device_path
                0x0000000017878498        0x8 arch/arm/cpu/armv7/start.o
 .rel.text.efi_locate_handle
                0x00000000178784a0       0x10 arch/arm/cpu/armv7/start.o
 .rel.text.efi_register_protocol_notify
                0x00000000178784b0        0x8 arch/arm/cpu/armv7/start.o
 .rel.text.efi_uninstall_protocol_interface
                0x00000000178784b8        0x8 arch/arm/cpu/armv7/start.o
 .rel.text.efi_reinstall_protocol_interface
                0x00000000178784c0        0x8 arch/arm/cpu/armv7/start.o
 .rel.text.efi_install_protocol_interface
                0x00000000178784c8        0x8 arch/arm/cpu/armv7/start.o
 .rel.text.efi_check_event
                0x00000000178784d0        0x8 arch/arm/cpu/armv7/start.o
 .rel.text.efi_close_event
                0x00000000178784d8       0x10 arch/arm/cpu/armv7/start.o
 .rel.text.efi_signal_event
                0x00000000178784e8        0x8 arch/arm/cpu/armv7/start.o
 .rel.text.efi_set_timer
                0x00000000178784f0       0x18 arch/arm/cpu/armv7/start.o
 .rel.text.efi_create_event
                0x0000000017878508       0x10 arch/arm/cpu/armv7/start.o
 .rel.text.efi_free_pool
                0x0000000017878518        0x8 arch/arm/cpu/armv7/start.o
 .rel.text.efi_allocate_pool
                0x0000000017878520        0x8 arch/arm/cpu/armv7/start.o
 .rel.text.efi_restore_tpl
                0x0000000017878528        0x8 arch/arm/cpu/armv7/start.o
 .rel.text.efi_raise_tpl
                0x0000000017878530        0x8 arch/arm/cpu/armv7/start.o
 .rel.text.efi_exit_func
                0x0000000017878538        0x8 arch/arm/cpu/armv7/start.o
 .rel.text.efi_timer_check
                0x0000000017878540        0x8 arch/arm/cpu/armv7/start.o
 .rel.text.efi_wait_for_event
                0x0000000017878548       0x10 arch/arm/cpu/armv7/start.o
 .rel.text.efi_runtime_relocate
                0x0000000017878558       0x28 arch/arm/cpu/armv7/start.o
 .rel.text.efi_set_virtual_address_map
                0x0000000017878580       0x20 arch/arm/cpu/armv7/start.o
 .rel.text.efi_cout_enable_cursor
                0x00000000178785a0        0x8 arch/arm/cpu/armv7/start.o
 .rel.text.efi_cout_set_cursor_position
                0x00000000178785a8       0x10 arch/arm/cpu/armv7/start.o
 .rel.text.efi_cout_clear_screen
                0x00000000178785b8        0x8 arch/arm/cpu/armv7/start.o
 .rel.text.efi_cout_output_string
                0x00000000178785c0       0x18 arch/arm/cpu/armv7/start.o
 .rel.text.efi_cout_query_mode
                0x00000000178785d8       0x20 arch/arm/cpu/armv7/start.o
 .rel.text.efi_find_free_memory
                0x00000000178785f8        0x8 arch/arm/cpu/armv7/start.o
 .rel.text.efi_add_memory_map
                0x0000000017878600       0x10 arch/arm/cpu/armv7/start.o
 .rel.text.efi_get_memory_map
                0x0000000017878610        0x8 arch/arm/cpu/armv7/start.o
 .rel.text.efi_memory_init
                0x0000000017878618       0x10 arch/arm/cpu/armv7/start.o
 .rel.text.efi_disk_register
                0x0000000017878628       0x60 arch/arm/cpu/armv7/start.o
 .rel.text.inflate_fast
                0x0000000017878688       0x18 arch/arm/cpu/armv7/start.o
 .rel.text.inflate_table
                0x00000000178786a0       0x20 arch/arm/cpu/armv7/start.o
 .rel.text.inflateInit2_
                0x00000000178786c0       0x10 arch/arm/cpu/armv7/start.o
 .rel.text.inflate
                0x00000000178786d0      0x188 arch/arm/cpu/armv7/start.o
 .rel.text.crc7
                0x0000000000000000        0x0 arch/arm/cpu/armv7/start.o
 .rel.text.crc16_ccitt
                0x0000000017878858        0x8 arch/arm/cpu/armv7/start.o
 .rel.text.zunzip
                0x0000000017878860       0x28 arch/arm/cpu/armv7/start.o
 .rel.text.gunzip
                0x0000000017878888       0x10 arch/arm/cpu/armv7/start.o
 .rel.text.initcall_run_list
                0x0000000017878898        0x8 arch/arm/cpu/armv7/start.o
 .rel.text.lmb_alloc_base
                0x00000000178788a0        0x8 arch/arm/cpu/armv7/start.o
 .rel.text.strmhz
                0x0000000000000000        0x0 arch/arm/cpu/armv7/start.o
 .rel.text.list_sort
                0x00000000178788a8        0x8 arch/arm/cpu/armv7/start.o
 .rel.text.fdt_next_tag
                0x00000000178788b0       0x48 arch/arm/cpu/armv7/start.o
 .rel.text.fdt_get_phandle
                0x0000000000000000        0x0 arch/arm/cpu/armv7/start.o
 .rel.text.fdt_get_alias_namelen
                0x00000000178788f8        0x8 arch/arm/cpu/armv7/start.o
 .rel.text.fdt_node_check_compatible
                0x0000000000000000        0x0 arch/arm/cpu/armv7/start.o
 .rel.text.fdt_strerror
                0x0000000017878900       0x20 arch/arm/cpu/armv7/start.o
 .rel.text.fdt_find_regions
                0x0000000000000000        0x0 arch/arm/cpu/armv7/start.o
 .rel.text.fdt_create_empty_tree
                0x0000000000000000        0x0 arch/arm/cpu/armv7/start.o
 .rel.text.fdt_address_cells
                0x0000000017878920        0x8 arch/arm/cpu/armv7/start.o
 .rel.text.fdt_size_cells
                0x0000000017878928        0x8 arch/arm/cpu/armv7/start.o
 .rel.text.fdt_add_alias_regions
                0x0000000000000000        0x0 arch/arm/cpu/armv7/start.o
 .rel.text.fdt_next_region
                0x0000000000000000        0x0 arch/arm/cpu/armv7/start.o
 .rel.text.match_string
                0x0000000017878930        0x8 arch/arm/cpu/armv7/start.o
 .rel.text.match_entry
                0x0000000017878938        0x8 arch/arm/cpu/armv7/start.o
 .rel.text.hcreate_r
                0x0000000017878940        0x8 arch/arm/cpu/armv7/start.o
 .rel.text.hdestroy_r
                0x0000000017878948        0x8 arch/arm/cpu/armv7/start.o
 .rel.text.hmatch_r
                0x0000000017878950        0x8 arch/arm/cpu/armv7/start.o
 .rel.text.hsearch_r
                0x0000000017878958        0x8 arch/arm/cpu/armv7/start.o
 .rel.text.hdelete_r
                0x0000000017878960        0x8 arch/arm/cpu/armv7/start.o
 .rel.text.hexport_r
                0x0000000017878968       0x18 arch/arm/cpu/armv7/start.o
 .rel.text.himport_r
                0x0000000017878980       0x20 arch/arm/cpu/armv7/start.o
 .rel.text.display_options
                0x00000000178789a0       0x10 arch/arm/cpu/armv7/start.o
 .rel.text.print_freq
                0x0000000000000000        0x0 arch/arm/cpu/armv7/start.o
 .rel.text.print_size
                0x00000000178789b0       0x28 arch/arm/cpu/armv7/start.o
 .rel.text.print_buffer
                0x00000000178789d8       0x28 arch/arm/cpu/armv7/start.o
 .rel.text.crc32_no_comp
                0x0000000017878a00        0x8 arch/arm/cpu/armv7/start.o
 .rel.text.hang
                0x0000000017878a08        0x8 arch/arm/cpu/armv7/start.o
 .rel.text.skip_spaces
                0x0000000017878a10        0x8 arch/arm/cpu/armv7/start.o
 .rel.text.strim
                0x0000000017878a18        0x8 arch/arm/cpu/armv7/start.o
 .rel.text.emit
                0x0000000017878a20        0x8 arch/arm/cpu/armv7/start.o
 .rel.text.store_char_in_data
                0x0000000017878a28        0x8 arch/arm/cpu/armv7/start.o
 .rel.text.match
                0x0000000017878a30       0x98 arch/arm/cpu/armv7/start.o
 .rel.text.fixup_branch
                0x0000000017878ac8        0x8 arch/arm/cpu/armv7/start.o
 .rel.text.quantifier
                0x0000000017878ad0        0x8 arch/arm/cpu/armv7/start.o
 .rel.text.compile
                0x0000000017878ad8       0x28 arch/arm/cpu/armv7/start.o
 .rel.text.slre_compile
                0x0000000017878b00        0x8 arch/arm/cpu/armv7/start.o
 .rel.text.strncasecmp
                0x0000000000000000        0x0 arch/arm/cpu/armv7/start.o
 .rel.text.strtok
                0x0000000017878b08        0x8 arch/arm/cpu/armv7/start.o
 .rel.text.string
                0x0000000017878b10        0x8 arch/arm/cpu/armv7/start.o
 .rel.text.number
                0x0000000017878b18        0x8 arch/arm/cpu/armv7/start.o
 .rel.text.vsnprintf_internal
                0x0000000017878b20       0x10 arch/arm/cpu/armv7/start.o
 .rel.text.__assert_fail
                0x0000000000000000        0x0 arch/arm/cpu/armv7/start.o
 .rel.text.simple_itoa
                0x0000000017878b30        0x8 arch/arm/cpu/armv7/start.o
 .rel.text.print_grouped_ull
                0x0000000000000000        0x0 arch/arm/cpu/armv7/start.o
 .rel.text.simple_strtoul
                0x0000000017878b38        0x8 arch/arm/cpu/armv7/start.o
 .rel.text.simple_strtoull
                0x0000000017878b40        0x8 arch/arm/cpu/armv7/start.o
 .rel.text.trailing_strtoln
                0x0000000017878b48        0x8 arch/arm/cpu/armv7/start.o
 .rel.rodata.efi_boot_services
                0x0000000017878b50      0x150 arch/arm/cpu/armv7/start.o
 .rel.rodata.efi_con_out
                0x0000000017878ca0       0x50 arch/arm/cpu/armv7/start.o
 .rel.rodata.efi_console_control
                0x0000000017878cf0       0x18 arch/arm/cpu/armv7/start.o
 .rel.rodata.efi_con_in
                0x0000000017878d08       0x10 arch/arm/cpu/armv7/start.o
 .rel.rodata.z_errmsg
                0x0000000000000000        0x0 arch/arm/cpu/armv7/start.o
 .rel.rodata.fdt_errtable
                0x0000000017878d18       0x58 arch/arm/cpu/armv7/start.o
 .rel.data.loaded_image_info_obj.8221
                0x0000000017878d70       0x10 arch/arm/cpu/armv7/start.o
 .rel.data.efi_class_maps
                0x0000000017878d80       0x10 arch/arm/cpu/armv7/start.o
 .rel.data.efi_obj_list
                0x0000000017878d90       0x10 arch/arm/cpu/armv7/start.o
 .rel.data.efi_mem
                0x0000000017878da0       0x10 arch/arm/cpu/armv7/start.o
 .rel.data.current
                0x0000000000000000        0x0 arch/arm/cpu/armv7/start.o
 .rel.text.arp_init
                0x0000000017878db0       0x30 arch/arm/cpu/armv7/start.o
 .rel.text.arp_raw_request
                0x0000000017878de0       0x18 arch/arm/cpu/armv7/start.o
 .rel.text.arp_request
                0x0000000017878df8       0x38 arch/arm/cpu/armv7/start.o
 .rel.text.arp_timeout_check
                0x0000000017878e30       0x28 arch/arm/cpu/armv7/start.o
 .rel.text.arp_receive
                0x0000000017878e58       0x40 arch/arm/cpu/armv7/start.o
 .rel.text.dhcp_process_options
                0x0000000017878e98       0x68 arch/arm/cpu/armv7/start.o
 .rel.text.dhcp_packet_process_options
                0x0000000017878f00        0x8 arch/arm/cpu/armv7/start.o
 .rel.text.dhcp_handler
                0x0000000017878f08       0x90 arch/arm/cpu/armv7/start.o
 .rel.text.bootp_reset
                0x0000000017878f98       0x20 arch/arm/cpu/armv7/start.o
 .rel.text.bootp_request
                0x0000000017878fb8       0x78 arch/arm/cpu/armv7/start.o
 .rel.text.bootp_timeout_handler
                0x0000000017879030       0x28 arch/arm/cpu/armv7/start.o
 .rel.text.on_ethaddr
                0x0000000017879058        0x8 arch/arm/cpu/armv7/start.o
 .rel.text.eth_set_current_to_next
                0x0000000017879060        0x8 arch/arm/cpu/armv7/start.o
 .rel.text.eth_set_dev
                0x0000000017879068        0x8 arch/arm/cpu/armv7/start.o
 .rel.text.eth_get_dev_by_name
                0x0000000017879070       0x28 arch/arm/cpu/armv7/start.o
 .rel.text.eth_get_dev_by_index
                0x0000000017879098        0x8 arch/arm/cpu/armv7/start.o
 .rel.text.eth_get_dev_index
                0x00000000178790a0        0x8 arch/arm/cpu/armv7/start.o
 .rel.text.eth_write_hwaddr
                0x00000000178790a8       0x30 arch/arm/cpu/armv7/start.o
 .rel.text.eth_register
                0x00000000178790d8       0x18 arch/arm/cpu/armv7/start.o
 .rel.text.eth_unregister
                0x00000000178790f0       0x10 arch/arm/cpu/armv7/start.o
 .rel.text.eth_initialize
                0x0000000017879100       0x78 arch/arm/cpu/armv7/start.o
 .rel.text.eth_init
                0x0000000017879178       0x10 arch/arm/cpu/armv7/start.o
 .rel.text.eth_halt
                0x0000000017879188        0x8 arch/arm/cpu/armv7/start.o
 .rel.text.eth_send
                0x0000000017879190        0x8 arch/arm/cpu/armv7/start.o
 .rel.text.eth_rx
                0x0000000017879198        0x8 arch/arm/cpu/armv7/start.o
 .rel.text.eth_setenv_enetaddr
                0x00000000178791a0        0x8 arch/arm/cpu/armv7/start.o
 .rel.text.eth_getenv_enetaddr_by_index
                0x00000000178791a8       0x10 arch/arm/cpu/armv7/start.o
 .rel.text.eth_setenv_enetaddr_by_index
                0x00000000178791b8       0x10 arch/arm/cpu/armv7/start.o
 .rel.text.eth_mac_skip
                0x00000000178791c8       0x10 arch/arm/cpu/armv7/start.o
 .rel.text.eth_get_name
                0x00000000178791d8       0x10 arch/arm/cpu/armv7/start.o
 .rel.text.eth_current_changed
                0x00000000178791e8       0x20 arch/arm/cpu/armv7/start.o
 .rel.text.eth_try_another
                0x0000000017879208       0x28 arch/arm/cpu/armv7/start.o
 .rel.text.eth_set_current
                0x0000000017879230       0x20 arch/arm/cpu/armv7/start.o
 .rel.text.start_again_timeout_handler
                0x0000000017879250        0x8 arch/arm/cpu/armv7/start.o
 .rel.text.on_ipaddr
                0x0000000017879258        0x8 arch/arm/cpu/armv7/start.o
 .rel.text.on_gatewayip
                0x0000000017879260        0x8 arch/arm/cpu/armv7/start.o
 .rel.text.on_netmask
                0x0000000017879268        0x8 arch/arm/cpu/armv7/start.o
 .rel.text.on_serverip
                0x0000000017879270        0x8 arch/arm/cpu/armv7/start.o
 .rel.text.net_init_loop
                0x0000000017879278       0x10 arch/arm/cpu/armv7/start.o
 .rel.text.net_clear_handlers
                0x0000000017879288       0x20 arch/arm/cpu/armv7/start.o
 .rel.text.net_auto_load
                0x00000000178792a8       0x18 arch/arm/cpu/armv7/start.o
 .rel.text.net_init
                0x00000000178792c0       0x20 arch/arm/cpu/armv7/start.o
 .rel.text.net_start_again
                0x00000000178792e0       0x78 arch/arm/cpu/armv7/start.o
 .rel.text.net_loop
                0x0000000017879358      0x180 arch/arm/cpu/armv7/start.o
 .rel.text.net_get_udp_handler
                0x0000000000000000        0x0 arch/arm/cpu/armv7/start.o
 .rel.text.net_set_udp_handler
                0x00000000178794d8       0x10 arch/arm/cpu/armv7/start.o
 .rel.text.net_get_arp_handler
                0x00000000178794e8        0x8 arch/arm/cpu/armv7/start.o
 .rel.text.net_set_arp_handler
                0x0000000000000000        0x0 arch/arm/cpu/armv7/start.o
 .rel.text.net_set_timeout_handler
                0x00000000178794f0       0x18 arch/arm/cpu/armv7/start.o
 .rel.text.net_process_received_packet
                0x0000000017879508       0x38 arch/arm/cpu/armv7/start.o
 .rel.text.net_eth_hdr_size
                0x0000000017879540        0x8 arch/arm/cpu/armv7/start.o
 .rel.text.net_set_ether
                0x0000000017879548       0x10 arch/arm/cpu/armv7/start.o
 .rel.text.net_update_ether
                0x0000000017879558        0x8 arch/arm/cpu/armv7/start.o
 .rel.text.net_set_ip_header
                0x0000000017879560        0x8 arch/arm/cpu/armv7/start.o
 .rel.text.net_set_udp_header
                0x0000000017879568        0x8 arch/arm/cpu/armv7/start.o
 .rel.text.net_send_udp_packet
                0x0000000017879570       0x40 arch/arm/cpu/armv7/start.o
 .rel.text.on_bootfile
                0x00000000178795b0        0x8 arch/arm/cpu/armv7/start.o
 .rel.text.ip_to_string
                0x00000000178795b8        0x8 arch/arm/cpu/armv7/start.o
 .rel.text.vlan_to_string
                0x0000000000000000        0x0 arch/arm/cpu/armv7/start.o
 .rel.text.on_nvlan
                0x00000000178795c0        0x8 arch/arm/cpu/armv7/start.o
 .rel.text.on_vlan
                0x00000000178795c8        0x8 arch/arm/cpu/armv7/start.o
 .rel.text.rpc_lookup_reply
                0x00000000178795d0       0x18 arch/arm/cpu/armv7/start.o
 .rel.text.nfs_mount_reply
                0x00000000178795e8       0x18 arch/arm/cpu/armv7/start.o
 .rel.text.nfs_umountall_reply
                0x0000000017879600       0x18 arch/arm/cpu/armv7/start.o
 .rel.text.nfs_lookup_reply
                0x0000000017879618       0x10 arch/arm/cpu/armv7/start.o
 .rel.text.nfs_readlink_reply
                0x0000000017879628       0x18 arch/arm/cpu/armv7/start.o
 .rel.text.rpc_add_credentials
                0x0000000017879640        0x8 arch/arm/cpu/armv7/start.o
 .rel.text.rpc_req
                0x0000000017879648       0x38 arch/arm/cpu/armv7/start.o
 .rel.text.nfs_umountall_req
                0x0000000017879680       0x10 arch/arm/cpu/armv7/start.o
 .rel.text.nfs_lookup_req
                0x0000000017879690        0x8 arch/arm/cpu/armv7/start.o
 .rel.text.nfs_read_req
                0x0000000017879698        0x8 arch/arm/cpu/armv7/start.o
 .rel.text.nfs_readlink_req
                0x00000000178796a0        0x8 arch/arm/cpu/armv7/start.o
 .rel.text.nfs_read_reply.isra.2
                0x00000000178796a8       0x28 arch/arm/cpu/armv7/start.o
 .rel.text.nfs_send
                0x00000000178796d0       0x60 arch/arm/cpu/armv7/start.o
 .rel.text.nfs_handler
                0x0000000017879730       0xa8 arch/arm/cpu/armv7/start.o
 .rel.text.nfs_timeout_handler
                0x00000000178797d8       0x20 arch/arm/cpu/armv7/start.o
 .rel.text.nfs_start
                0x00000000178797f8       0xe0 arch/arm/cpu/armv7/start.o
 .rel.text.ping_timeout_handler
                0x00000000178798d8        0x8 arch/arm/cpu/armv7/start.o
 .rel.text.ping_start
                0x00000000178798e0       0x58 arch/arm/cpu/armv7/start.o
 .rel.text.ping_receive
                0x0000000017879938       0x18 arch/arm/cpu/armv7/start.o
 .rel.text.tftp_send
                0x0000000017879950       0xb8 arch/arm/cpu/armv7/start.o
 .rel.text.tftp_handler
                0x0000000017879a08       0xd0 arch/arm/cpu/armv7/start.o
 .rel.text.tftp_timeout_handler
                0x0000000017879ad8       0x40 arch/arm/cpu/armv7/start.o
 .rel.text.tftp_start
                0x0000000017879b18      0x140 arch/arm/cpu/armv7/start.o
 .rel.u_boot_list_2_env_clbk_2_ethaddr
                0x0000000017879c58       0x10 arch/arm/cpu/armv7/start.o
 .rel.u_boot_list_2_env_clbk_2_ipaddr
                0x0000000017879c68       0x10 arch/arm/cpu/armv7/start.o
 .rel.u_boot_list_2_env_clbk_2_vlan
                0x0000000017879c78       0x10 arch/arm/cpu/armv7/start.o
 .rel.u_boot_list_2_env_clbk_2_serverip
                0x0000000017879c88       0x10 arch/arm/cpu/armv7/start.o
 .rel.u_boot_list_2_env_clbk_2_bootfile
                0x0000000017879c98       0x10 arch/arm/cpu/armv7/start.o
 .rel.u_boot_list_2_env_clbk_2_netmask
                0x0000000017879ca8       0x10 arch/arm/cpu/armv7/start.o
 .rel.u_boot_list_2_env_clbk_2_nvlan
                0x0000000017879cb8       0x10 arch/arm/cpu/armv7/start.o
 .rel.u_boot_list_2_env_clbk_2_gatewayip
                0x0000000017879cc8       0x10 arch/arm/cpu/armv7/start.o
 .rel.text.do_dm
                0x0000000017879cd8        0x8 arch/arm/cpu/armv7/start.o
 .rel.u_boot_list_2_cmd_2_dm
                0x0000000017879ce0       0x20 arch/arm/cpu/armv7/start.o
 .rel.data.test_commands
                0x0000000017879d00       0x60 arch/arm/cpu/armv7/start.o
 .rel.text.raise
                0x0000000017879d60        0x8 arch/arm/cpu/armv7/start.o

.rel_dyn_end    0x0000000017879d68        0x0
 *(.__rel_dyn_end)
 .__rel_dyn_end
                0x0000000017879d68        0x0 arch/arm/lib/built-in.o

.end            0x0000000017879d68        0x0
 *(.__end)
 .__end         0x0000000017879d68        0x0 arch/arm/lib/built-in.o
                0x0000000017879d68                _image_binary_end = .
                0x000000001787a000                . = ALIGN (0x1000)

.mmutable
 *(.mmutable)

.bss_start      0x000000001786ef60        0x0
 *(.__bss_start)
 .__bss_start   0x000000001786ef60        0x0 arch/arm/lib/built-in.o
                0x000000001786ef60                __bss_start
                0x000000001786ef60                __bss_base = .

.bss            0x000000001786ef60    0x4b10c
 *(.bss*)
 .bss.modes     0x000000001786ef60        0x8 arch/arm/imx-common/built-in.o
 .bss.params    0x000000001786ef68        0x4 arch/arm/lib/built-in.o
 .bss.images    0x000000001786ef6c      0x130 cmd/built-in.o
                0x000000001786ef6c                images
 .bss.working_fdt
                0x000000001786f09c        0x4 cmd/built-in.o
                0x000000001786f09c                working_fdt
 .bss.data.8490
                0x000000001786f0a0      0x400 cmd/built-in.o
 .bss.i2c_mm_last_chip
                0x000000001786f4a0        0x4 cmd/built-in.o
 .bss.i2c_mm_last_alen
                0x000000001786f4a4        0x4 cmd/built-in.o
 .bss.i2c_mm_last_addr
                0x000000001786f4a8        0x4 cmd/built-in.o
 .bss.i2c_dp_last_chip
                0x000000001786f4ac        0x4 cmd/built-in.o
 .bss.i2c_dp_last_addr
                0x000000001786f4b0        0x4 cmd/built-in.o
 .bss.i2c_dp_last_alen
                0x000000001786f4b4        0x4 cmd/built-in.o
 .bss.send_parms
                0x000000001786f4b8       0x14 cmd/built-in.o
 .bss.os_data_init
                0x000000001786f4cc        0x4 cmd/built-in.o
 .bss.os_data_addr_saved
                0x000000001786f4d0        0x4 cmd/built-in.o
 .bss.his_pad_char
                0x000000001786f4d4        0x1 cmd/built-in.o
 .bss.a_b       0x000000001786f4d5       0x18 cmd/built-in.o
 *fill*         0x000000001786f4ed        0x3 
 .bss.os_data_char
                0x000000001786f4f0        0x4 cmd/built-in.o
 .bss.os_data_state
                0x000000001786f4f4        0x4 cmd/built-in.o
 .bss.k_data_escape
                0x000000001786f4f8        0x4 cmd/built-in.o
 .bss.os_data_state_saved
                0x000000001786f4fc        0x4 cmd/built-in.o
 .bss.os_data_addr
                0x000000001786f500        0x4 cmd/built-in.o
 .bss.send_ptr  0x000000001786f504        0x4 cmd/built-in.o
 .bss.bin_start_address
                0x000000001786f508        0x4 cmd/built-in.o
 .bss.his_quote
                0x000000001786f50c        0x1 cmd/built-in.o
 *fill*         0x000000001786f50d        0x3 
 .bss.his_pad_count
                0x000000001786f510        0x4 cmd/built-in.o
 .bss.his_eol   0x000000001786f514        0x1 cmd/built-in.o
 *fill*         0x000000001786f515        0x3 
 .bss.k_data_escape_saved
                0x000000001786f518        0x4 cmd/built-in.o
 .bss.dp_last_addr
                0x000000001786f51c        0x4 cmd/built-in.o
 .bss.base_address
                0x000000001786f520        0x4 cmd/built-in.o
 .bss.mm_last_size
                0x000000001786f524        0x4 cmd/built-in.o
 .bss.mm_last_addr
                0x000000001786f528        0x4 cmd/built-in.o
 .bss.dp_last_size
                0x000000001786f52c        0x4 cmd/built-in.o
 .bss.last_data
                0x000000001786f530        0x8 cmd/built-in.o
 .bss.last_reg_hi
                0x000000001786f538        0x8 cmd/built-in.o
 .bss.last_mask
                0x000000001786f540        0x4 cmd/built-in.o
 .bss.last_addr_lo
                0x000000001786f544        0x8 cmd/built-in.o
 .bss.last_op   0x000000001786f54c        0x4 cmd/built-in.o
 .bss.last_addr_hi
                0x000000001786f550        0x8 cmd/built-in.o
 .bss.last_reg_lo
                0x000000001786f558        0x8 cmd/built-in.o
 .bss.last_devad_hi
                0x000000001786f560        0x4 cmd/built-in.o
 .bss.last_devad_lo
                0x000000001786f564        0x4 cmd/built-in.o
 .bss.flash     0x000000001786f568        0x4 cmd/built-in.o
 .bss.ums       0x000000001786f56c        0x4 cmd/built-in.o
 .bss.ums_count
                0x000000001786f570        0x4 cmd/built-in.o
 .bss.flag_repeat
                0x000000001786f574        0x4 common/built-in.o
 .bss.the_command.7574
                0x000000001786f578      0x201 common/built-in.o
 .bss.buf.7774  0x000000001786f779       0x28 common/built-in.o
 *fill*         0x000000001786f7a1        0x3 
 .bss.ifs       0x000000001786f7a4        0x4 common/built-in.o
 .bss.last_return_code
                0x000000001786f7a8        0x4 common/built-in.o
 .bss.map       0x000000001786f7ac      0x100 common/built-in.o
 .bss.do_repeat
                0x000000001786f8ac        0x4 common/built-in.o
 .bss.top_vars  0x000000001786f8b0        0x4 common/built-in.o
 .bss.stored_bootdelay
                0x000000001786f8b4        0x4 common/built-in.o
 .bss.monitor_flash_len
                0x000000001786f8b8        0x4 common/built-in.o
                0x000000001786f8b8                monitor_flash_len
 .bss.callback_list
                0x000000001786f8bc        0x4 common/built-in.o
 .bss.flags_list
                0x000000001786f8c0        0x4 common/built-in.o
 .bss.current_mii
                0x000000001786f8c4        0x4 common/built-in.o
 .bss.mii_devs  0x000000001786f8c8        0x8 common/built-in.o
 .bss.dev_index
                0x000000001786f8d0        0x4 common/built-in.o
 *fill*         0x000000001786f8d4        0xc 
 .bss.usb_dev   0x000000001786f8e0    0x12c00 common/built-in.o
 .bss.asynch_allowed
                0x00000000178824e0        0x4 common/built-in.o
 .bss.usb_started
                0x00000000178824e4        0x1 common/built-in.o
                0x00000000178824e4                usb_started
 *fill*         0x00000000178824e5        0x3 
 .bss.usb_hub_index
                0x00000000178824e8        0x4 common/built-in.o
 .bss.running.9823
                0x00000000178824ec        0x4 common/built-in.o
 .bss.hub_dev   0x00000000178824f0      0x380 common/built-in.o
 .bss.usb_stor  0x0000000017882870      0x16c common/built-in.o
 .bss.usb_dev_desc
                0x00000000178829dc      0x32c common/built-in.o
 .bss.usb_max_devs
                0x0000000017882d08        0x4 common/built-in.o
 .bss.CBWTag    0x0000000017882d0c        0x4 common/built-in.o
 *fill*         0x0000000017882d10       0x10 
 .bss.usb_ccb   0x0000000017882d20       0xa0 common/built-in.o
 .bss.ctrlc_was_pressed
                0x0000000017882dc0        0x4 common/built-in.o
 .bss.ctrlc_disabled
                0x0000000017882dc4        0x4 common/built-in.o
 .bss.max_total_mem
                0x0000000017882dc8        0x4 common/built-in.o
 .bss.mem_malloc_brk
                0x0000000017882dcc        0x4 common/built-in.o
                0x0000000017882dcc                mem_malloc_brk
 .bss.max_sbrked_mem
                0x0000000017882dd0        0x4 common/built-in.o
 .bss.current_mallinfo
                0x0000000017882dd4       0x28 common/built-in.o
 .bss.mem_malloc_end
                0x0000000017882dfc        0x4 common/built-in.o
                0x0000000017882dfc                mem_malloc_end
 .bss.top_pad   0x0000000017882e00        0x4 common/built-in.o
 .bss.mem_malloc_start
                0x0000000017882e04        0x4 common/built-in.o
                0x0000000017882e04                mem_malloc_start
 .bss.andr_tmp_str
                0x0000000017882e08      0x201 common/built-in.o
 *fill*         0x0000000017883009        0x3 
 .bss.devs      0x000000001788300c       0x4c common/built-in.o
 .bss.stdio_devices
                0x0000000017883058        0xc common/built-in.o
                0x0000000017883058                stdio_devices
 .bss.hist_list
                0x0000000017883064       0x50 common/built-in.o
 .bss.hist_lines
                0x00000000178830b4     0x2814 common/built-in.o
 .bss.hist_max  0x00000000178858c8        0x4 common/built-in.o
 .bss.hist_add_idx
                0x00000000178858cc        0x4 common/built-in.o
 .bss.initted.7422
                0x00000000178858d0        0x4 common/built-in.o
 .bss.hist_num  0x00000000178858d4        0x4 common/built-in.o
 .bss.console_buffer
                0x00000000178858d8      0x201 common/built-in.o
                0x00000000178858d8                console_buffer
 .bss.tmp_buf   0x0000000017885ad9      0x200 common/built-in.o
 .bss.tmp_buf.7331
                0x0000000017885cd9      0x200 common/built-in.o
 *fill*         0x0000000017885ed9        0x3 
 .bss.xyz       0x0000000017885edc      0x434 common/built-in.o
 .bss.dfu_alt_num
                0x0000000017886310        0x4 drivers/built-in.o
 .bss.dfu_buf   0x0000000017886314        0x4 drivers/built-in.o
 .bss.dfu_buf_size
                0x0000000017886318        0x4 drivers/built-in.o
 .bss.dfu_hash_algo
                0x000000001788631c        0x4 drivers/built-in.o
 .bss.alt_num_cnt
                0x0000000017886320        0x4 drivers/built-in.o
 .bss.dfu_file_buf_len
                0x0000000017886324        0x4 drivers/built-in.o
 .bss.dfu_file_buf
                0x0000000017886328        0x4 drivers/built-in.o
 .bss.dfu_file_buf_filled
                0x000000001788632c        0x4 drivers/built-in.o
 .bss.video_console_address
                0x0000000017886330        0x4 drivers/built-in.o
 .bss.bgx       0x0000000017886334        0x4 drivers/built-in.o
 .bss.video_logo_xpos
                0x0000000017886338        0x4 drivers/built-in.o
 .bss.video_logo_ypos
                0x000000001788633c        0x4 drivers/built-in.o
 .bss.eorx      0x0000000017886340        0x4 drivers/built-in.o
 .bss.fgx       0x0000000017886344        0x4 drivers/built-in.o
 .bss.pGD       0x0000000017886348        0x4 drivers/built-in.o
 .bss.cfb_do_flush_cache
                0x000000001788634c        0x4 drivers/built-in.o
 .bss.console_row
                0x0000000017886350        0x4 drivers/built-in.o
 .bss.video_fb_address
                0x0000000017886354        0x4 drivers/built-in.o
 .bss.console_col
                0x0000000017886358        0x4 drivers/built-in.o
 .bss.g_dp_in_use
                0x000000001788635c        0x1 drivers/built-in.o
 *fill*         0x000000001788635d        0x3 
 .bss.panel     0x0000000017886360       0x90 drivers/built-in.o
 .bss.gpixfmt   0x00000000178863f0        0x4 drivers/built-in.o
 .bss.gdisp     0x00000000178863f4        0x1 drivers/built-in.o
 *fill*         0x00000000178863f5        0x3 
 .bss.mxcfb_info
                0x00000000178863f8        0xc drivers/built-in.o
 .bss.gmode     0x0000000017886404        0x4 drivers/built-in.o
 .bss.ipu_dp_use_count
                0x0000000017886408        0x4 drivers/built-in.o
 .bss.g_dc_di_assignment
                0x000000001788640c        0xa drivers/built-in.o
                0x000000001788640c                g_dc_di_assignment
 *fill*         0x0000000017886416        0x2 
 .bss.ipu_cpmem_base
                0x0000000017886418        0x4 drivers/built-in.o
                0x0000000017886418                ipu_cpmem_base
 .bss.g_ldb_clk
                0x000000001788641c        0x4 drivers/built-in.o
                0x000000001788641c                g_ldb_clk
 .bss.g_ipu_clk
                0x0000000017886420        0x4 drivers/built-in.o
                0x0000000017886420                g_ipu_clk
 .bss.ipu_dc_use_count
                0x0000000017886424        0x4 drivers/built-in.o
 .bss.ipu_dmfc_use_count
                0x0000000017886428        0x4 drivers/built-in.o
 .bss.ipu_di_use_count
                0x000000001788642c        0x8 drivers/built-in.o
 .bss.g_ipu_clk_enabled
                0x0000000017886434        0x1 drivers/built-in.o
                0x0000000017886434                g_ipu_clk_enabled
 *fill*         0x0000000017886435        0x3 
 .bss.ipu_dc_tmpl_reg
                0x0000000017886438        0x4 drivers/built-in.o
                0x0000000017886438                ipu_dc_tmpl_reg
 .bss.g_channel_init_mask
                0x000000001788643c        0x4 drivers/built-in.o
                0x000000001788643c                g_channel_init_mask
 .bss.g_channel_enable_mask
                0x0000000017886440        0x4 drivers/built-in.o
                0x0000000017886440                g_channel_enable_mask
 .bss.g_pixel_clk
                0x0000000017886444        0x8 drivers/built-in.o
                0x0000000017886444                g_pixel_clk
 .bss.g_di_clk  0x000000001788644c        0x8 drivers/built-in.o
                0x000000001788644c                g_di_clk
 .bss.dmfc_type_setup
                0x0000000017886454        0x4 drivers/built-in.o
                0x0000000017886454                dmfc_type_setup
 .bss.dmfc_size_23
                0x0000000017886458        0x4 drivers/built-in.o
 .bss.dmfc_size_24
                0x000000001788645c        0x4 drivers/built-in.o
 .bss.dmfc_size_27
                0x0000000017886460        0x4 drivers/built-in.o
 .bss.dmfc_size_28
                0x0000000017886464        0x4 drivers/built-in.o
 .bss.dmfc_size_29
                0x0000000017886468        0x4 drivers/built-in.o
 .bss.g_di1_tvout
                0x000000001788646c        0x4 drivers/built-in.o
                0x000000001788646c                g_di1_tvout
 .bss.dc_swap   0x0000000017886470        0x1 drivers/built-in.o
 *fill*         0x0000000017886471        0x3 
 .bss.mmc_devices
                0x0000000017886474        0x8 drivers/mmc/built-in.o
 .bss.initialized.9530
                0x000000001788647c        0x4 drivers/mmc/built-in.o
 .bss.hose_head
                0x0000000017886480        0x4 drivers/pci/built-in.o
 .bss.indent.7997
                0x0000000017886484        0x4 drivers/pci/built-in.o
 .bss.pcc.8305  0x0000000017886488       0xe0 drivers/pci/built-in.o
 .bss.data_abort_backup.8241
                0x0000000017886568        0x4 drivers/pci/built-in.o
 .bss.serial_devices
                0x000000001788656c        0x4 drivers/serial/built-in.o
 .bss.serial_current
                0x0000000017886570        0x4 drivers/serial/built-in.o
 .bss.usb_eth   0x0000000017886574      0x1a4 drivers/usb/eth/built-in.o
 .bss.usb_max_eth_dev
                0x0000000017886718        0x4 drivers/usb/eth/built-in.o
 .bss.curr_eth_dev
                0x000000001788671c        0x4 drivers/usb/eth/built-in.o
 .bss.epnum     0x0000000017886720        0x4 drivers/usb/gadget/built-in.o
 .bss.g_dnl_detach_request
                0x0000000017886724        0x1 drivers/usb/gadget/built-in.o
 .bss.g_dnl_serial
                0x0000000017886725       0x20 drivers/usb/gadget/built-in.o
 *fill*         0x0000000017886745        0x3 
 .bss.composite
                0x0000000017886748        0x4 drivers/usb/gadget/built-in.o
 .bss.dfu_defer_flush
                0x000000001788674c        0x4 drivers/usb/gadget/built-in.o
                0x000000001788674c                dfu_defer_flush
 .bss.ums       0x0000000017886750        0x4 drivers/usb/gadget/built-in.o
 .bss.state.8491
                0x0000000017886754        0x4 drivers/usb/gadget/built-in.o
 .bss.ums_count
                0x0000000017886758        0x4 drivers/usb/gadget/built-in.o
 .bss.the_fsg_common
                0x000000001788675c        0x4 drivers/usb/gadget/built-in.o
 .bss.unknown.8747
                0x0000000017886760       0x10 drivers/usb/gadget/built-in.o
 .bss.download_bytes
                0x0000000017886770        0x4 drivers/usb/gadget/built-in.o
 .bss.fastboot_func
                0x0000000017886774        0x4 drivers/usb/gadget/built-in.o
 .bss.fastboot_flash_session_id
                0x0000000017886778        0x4 drivers/usb/gadget/built-in.o
 .bss.download_size
                0x000000001788677c        0x4 drivers/usb/gadget/built-in.o
 .bss.ehcic     0x0000000017886780      0x120 drivers/usb/host/built-in.o
 .bss.fs_partition
                0x00000000178868a0       0x50 fs/built-in.o
 .bss.fs_type   0x00000000178868f0        0x4 fs/built-in.o
 .bss.fs_dev_desc
                0x00000000178868f4        0x4 fs/built-in.o
 .bss.ext_fs    0x00000000178868f8       0x48 fs/built-in.o
                0x00000000178868f8                ext_fs
 .bss.ext4fs_root
                0x0000000017886940        0x4 fs/built-in.o
                0x0000000017886940                ext4fs_root
 .bss.ext4fs_indir3_size
                0x0000000017886944        0x4 fs/built-in.o
                0x0000000017886944                ext4fs_indir3_size
 .bss.ext4fs_indir2_size
                0x0000000017886948        0x4 fs/built-in.o
                0x0000000017886948                ext4fs_indir2_size
 .bss.ext4fs_indir3_block
                0x000000001788694c        0x4 fs/built-in.o
                0x000000001788694c                ext4fs_indir3_block
 .bss.ext4fs_indir1_block
                0x0000000017886950        0x4 fs/built-in.o
                0x0000000017886950                ext4fs_indir1_block
 .bss.ext4fs_indir2_block
                0x0000000017886954        0x4 fs/built-in.o
                0x0000000017886954                ext4fs_indir2_block
 .bss.ext4fs_indir1_size
                0x0000000017886958        0x4 fs/built-in.o
                0x0000000017886958                ext4fs_indir1_size
 .bss.symlinknest
                0x000000001788695c        0x4 fs/built-in.o
 .bss.ext4fs_file
                0x0000000017886960        0x4 fs/built-in.o
                0x0000000017886960                ext4fs_file
 .bss.g_parent_inode
                0x0000000017886964        0x4 fs/built-in.o
                0x0000000017886964                g_parent_inode
 .bss.part_info
                0x0000000017886968        0x4 fs/built-in.o
 .bss.part_offset
                0x000000001788696c        0x4 fs/built-in.o
                0x000000001788696c                part_offset
 .bss.ext4fs_blk_desc
                0x0000000017886970        0x4 fs/built-in.o
 .bss.journal_ptr
                0x0000000017886974      0x190 fs/built-in.o
                0x0000000017886974                journal_ptr
 .bss.revk_blk_list
                0x0000000017886b04        0x4 fs/built-in.o
 .bss.gindex    0x0000000017886b08        0x4 fs/built-in.o
                0x0000000017886b08                gindex
 .bss.gd_index  0x0000000017886b0c        0x4 fs/built-in.o
                0x0000000017886b0c                gd_index
 .bss.dirty_block_ptr
                0x0000000017886b10      0x190 fs/built-in.o
                0x0000000017886b10                dirty_block_ptr
 .bss.prev_node
                0x0000000017886ca0        0x4 fs/built-in.o
 .bss.jrnl_blk_idx
                0x0000000017886ca4        0x4 fs/built-in.o
                0x0000000017886ca4                jrnl_blk_idx
 *fill*         0x0000000017886ca8       0x18 
 .bss.do_fat_read_at_block
                0x0000000017886cc0    0x10000 fs/built-in.o
                0x0000000017886cc0                do_fat_read_at_block
 .bss.get_dentfromdir_block
                0x0000000017896cc0    0x10000 fs/built-in.o
                0x0000000017896cc0                get_dentfromdir_block
 .bss.cur_part_info
                0x00000000178a6cc0       0x50 fs/built-in.o
 *fill*         0x00000000178a6d10       0x10 
 .bss.get_contents_vfatname_block
                0x00000000178a6d20    0x10000 fs/built-in.o
                0x00000000178a6d20                get_contents_vfatname_block
 .bss.cur_dev   0x00000000178b6d20        0x4 fs/built-in.o
 .bss.app_gd    0x00000000178b6d24        0x4 lib/built-in.o
 .bss.efi_gd    0x00000000178b6d28        0x4 lib/built-in.o
 *fill*         0x00000000178b6d2c        0x4 
 .bss.mono.8264
                0x00000000178b6d30        0x8 lib/built-in.o
 .bss.console_size_queried
                0x00000000178b6d38        0x1 lib/built-in.o
 *fill*         0x00000000178b6d39        0x3 
 .bss.errno     0x00000000178b6d3c        0x4 lib/built-in.o
                0x00000000178b6d3c                errno
 .bss.___strtok
                0x00000000178b6d40        0x4 lib/built-in.o
                0x00000000178b6d40                ___strtok
 .bss.local.7512
                0x00000000178b6d44       0x16 lib/built-in.o
 .bss.arp_tx_packet_buf
                0x00000000178b6d5a      0x620 net/built-in.o
 *fill*         0x00000000178b737a        0x2 
 .bss.arp_wait_packet_ethaddr
                0x00000000178b737c        0x4 net/built-in.o
                0x00000000178b737c                arp_wait_packet_ethaddr
 .bss.arp_tx_packet
                0x00000000178b7380        0x4 net/built-in.o
 .bss.arp_wait_tx_packet_size
                0x00000000178b7384        0x4 net/built-in.o
                0x00000000178b7384                arp_wait_tx_packet_size
 .bss.arp_wait_try
                0x00000000178b7388        0x4 net/built-in.o
                0x00000000178b7388                arp_wait_try
 .bss.net_arp_wait_reply_ip
                0x00000000178b738c        0x4 net/built-in.o
 .bss.net_arp_wait_packet_ip
                0x00000000178b7390        0x4 net/built-in.o
                0x00000000178b7390                net_arp_wait_packet_ip
 .bss.arp_wait_timer_start
                0x00000000178b7394        0x4 net/built-in.o
                0x00000000178b7394                arp_wait_timer_start
 .bss.dhcp_state
                0x00000000178b7398        0x4 net/built-in.o
 .bss.net_hostname
                0x00000000178b739c       0x20 net/built-in.o
                0x00000000178b739c                net_hostname
 .bss.bootp_timeout
                0x00000000178b73bc        0x4 net/built-in.o
                0x00000000178b73bc                bootp_timeout
 .bss.dhcp_server_ip
                0x00000000178b73c0        0x4 net/built-in.o
 .bss.dhcp_option_overload
                0x00000000178b73c4        0x1 net/built-in.o
 *fill*         0x00000000178b73c5        0x3 
 .bss.time_taken_max
                0x00000000178b73c8        0x4 net/built-in.o
 .bss.net_root_path
                0x00000000178b73cc       0x40 net/built-in.o
                0x00000000178b73cc                net_root_path
 .bss.bootp_ids
                0x00000000178b740c       0x10 net/built-in.o
                0x00000000178b740c                bootp_ids
 .bss.bootp_num_ids
                0x00000000178b741c        0x4 net/built-in.o
                0x00000000178b741c                bootp_num_ids
 .bss.bootp_try
                0x00000000178b7420        0x4 net/built-in.o
                0x00000000178b7420                bootp_try
 .bss.bootp_start
                0x00000000178b7424        0x4 net/built-in.o
                0x00000000178b7424                bootp_start
 .bss.dhcp_leasetime
                0x00000000178b7428        0x4 net/built-in.o
 .bss.net_nis_domain
                0x00000000178b742c       0x20 net/built-in.o
                0x00000000178b742c                net_nis_domain
 .bss.eth_current
                0x00000000178b744c        0x4 net/built-in.o
                0x00000000178b744c                eth_current
 .bss.eth_devices
                0x00000000178b7450        0x4 net/built-in.o
 .bss.index.8076
                0x00000000178b7454        0x4 net/built-in.o
 .bss.env_changed_id.9458
                0x00000000178b7458        0x4 net/built-in.o
 .bss.act.9457  0x00000000178b745c        0x4 net/built-in.o
 .bss.first_failed.9452
                0x00000000178b7460        0x4 net/built-in.o
 .bss.net_ethaddr
                0x00000000178b7464        0x6 net/built-in.o
                0x00000000178b7464                net_ethaddr
 *fill*         0x00000000178b746a        0x2 
 .bss.net_dns_server
                0x00000000178b746c        0x4 net/built-in.o
                0x00000000178b746c                net_dns_server
 .bss.net_state
                0x00000000178b7470        0x4 net/built-in.o
                0x00000000178b7470                net_state
 .bss.net_rx_packet
                0x00000000178b7474        0x4 net/built-in.o
                0x00000000178b7474                net_rx_packet
 .bss.net_boot_file_expected_size_in_blocks
                0x00000000178b7478        0x4 net/built-in.o
                0x00000000178b7478                net_boot_file_expected_size_in_blocks
 .bss.net_rx_packets
                0x00000000178b747c       0x10 net/built-in.o
                0x00000000178b747c                net_rx_packets
 .bss.time_start
                0x00000000178b748c        0x8 net/built-in.o
 .bss.net_gateway
                0x00000000178b7494        0x4 net/built-in.o
                0x00000000178b7494                net_gateway
 .bss.net_boot_file_name
                0x00000000178b7498      0x400 net/built-in.o
                0x00000000178b7498                net_boot_file_name
 .bss.net_server_ip
                0x00000000178b7898        0x4 net/built-in.o
                0x00000000178b7898                net_server_ip
 .bss.udp_packet_handler
                0x00000000178b789c        0x4 net/built-in.o
 .bss.net_dev_exists
                0x00000000178b78a0        0x4 net/built-in.o
 .bss.net_try_count
                0x00000000178b78a4        0x4 net/built-in.o
 .bss.net_server_ethaddr
                0x00000000178b78a8        0x6 net/built-in.o
                0x00000000178b78a8                net_server_ethaddr
 .bss.net_null_ethaddr
                0x00000000178b78ae        0x6 net/built-in.o
                0x00000000178b78ae                net_null_ethaddr
 .bss.net_ip_id
                0x00000000178b78b4        0x4 net/built-in.o
 .bss.net_restart_wrap
                0x00000000178b78b8        0x4 net/built-in.o
                0x00000000178b78b8                net_restart_wrap
 .bss.net_restarted
                0x00000000178b78bc        0x4 net/built-in.o
 .bss.time_delta
                0x00000000178b78c0        0x4 net/built-in.o
 .bss.arp_packet_handler
                0x00000000178b78c4        0x4 net/built-in.o
 .bss.net_netmask
                0x00000000178b78c8        0x4 net/built-in.o
                0x00000000178b78c8                net_netmask
 .bss.net_pkt_buf
                0x00000000178b78cc     0x1e20 net/built-in.o
 .bss.net_ip    0x00000000178b96ec        0x4 net/built-in.o
                0x00000000178b96ec                net_ip
 .bss.net_rx_packet_len
                0x00000000178b96f0        0x4 net/built-in.o
                0x00000000178b96f0                net_rx_packet_len
 .bss.net_tx_packet
                0x00000000178b96f4        0x4 net/built-in.o
                0x00000000178b96f4                net_tx_packet
 .bss.time_handler
                0x00000000178b96f8        0x4 net/built-in.o
 .bss.net_boot_file_size
                0x00000000178b96fc        0x4 net/built-in.o
                0x00000000178b96fc                net_boot_file_size
 .bss.nfs_server_mount_port
                0x00000000178b9700        0x4 net/built-in.o
 .bss.nfs_server_ip
                0x00000000178b9704        0x4 net/built-in.o
 .bss.nfs_filename
                0x00000000178b9708        0x4 net/built-in.o
 .bss.nfs_state
                0x00000000178b970c        0x4 net/built-in.o
 .bss.dirfh     0x00000000178b9710       0x20 net/built-in.o
 .bss.nfs_len   0x00000000178b9730        0x4 net/built-in.o
 .bss.rpc_id    0x00000000178b9734        0x4 net/built-in.o
 .bss.fs_mounted
                0x00000000178b9738        0x4 net/built-in.o
 .bss.default_filename
                0x00000000178b973c       0x4d net/built-in.o
 *fill*         0x00000000178b9789        0x3 
 .bss.nfs_server_port
                0x00000000178b978c        0x4 net/built-in.o
 .bss.nfs_download_state
                0x00000000178b9790        0x4 net/built-in.o
 .bss.nfs_path  0x00000000178b9794        0x4 net/built-in.o
 .bss.filefh    0x00000000178b9798       0x20 net/built-in.o
 .bss.nfs_path_buff
                0x00000000178b97b8      0x800 net/built-in.o
 .bss.nfs_timeout_count
                0x00000000178b9fb8        0x4 net/built-in.o
 .bss.nfs_our_port
                0x00000000178b9fbc        0x4 net/built-in.o
 .bss.net_ping_ip
                0x00000000178b9fc0        0x4 net/built-in.o
                0x00000000178b9fc0                net_ping_ip
 .bss.ping_seq_number
                0x00000000178b9fc4        0x2 net/built-in.o
 *fill*         0x00000000178b9fc6        0x2 
 .bss.tftp_prev_block
                0x00000000178b9fc8        0x4 net/built-in.o
 .bss.timeout_count
                0x00000000178b9fcc        0x4 net/built-in.o
 .bss.tftp_block_wrap
                0x00000000178b9fd0        0x4 net/built-in.o
 .bss.tftp_remote_port
                0x00000000178b9fd4        0x4 net/built-in.o
 .bss.tftp_cur_block
                0x00000000178b9fd8        0x4 net/built-in.o
 .bss.tftp_remote_ip
                0x00000000178b9fdc        0x4 net/built-in.o
 .bss.tftp_state
                0x00000000178b9fe0        0x4 net/built-in.o
 .bss.tftp_our_port
                0x00000000178b9fe4        0x4 net/built-in.o
 .bss.tftp_filename
                0x00000000178b9fe8       0x80 net/built-in.o
 .bss.tftp_block_wrap_offset
                0x00000000178ba068        0x4 net/built-in.o
                0x00000000178ba06c                . = ALIGN (0x4)
                0x00000000178ba06c                __bss_limit = .

.bss_end        0x00000000178ba06c        0x0
 *(.__bss_end)
 .__bss_end     0x00000000178ba06c        0x0 arch/arm/lib/built-in.o
                0x00000000178ba06c                __bss_end

.dynsym         0x0000000017879d68       0x60
 *(.dynsym)
 .dynsym        0x0000000017879d68       0x60 arch/arm/cpu/armv7/start.o

.dynbss         0x0000000017879dc8        0x0
 *(.dynbss)
 .dynbss        0x0000000000000000        0x0 arch/arm/cpu/armv7/start.o

.dynstr         0x0000000017879dc8       0x2a
 *(.dynstr*)
 .dynstr        0x0000000017879dc8       0x2a arch/arm/cpu/armv7/start.o

.dynamic        0x0000000017879df4       0x80
 *(.dynamic*)
 .dynamic       0x0000000017879df4       0x80 arch/arm/cpu/armv7/start.o
                0x0000000017879df4                _DYNAMIC

.plt            0x0000000017879e74        0x0
 *(.plt*)
 .plt           0x0000000000000000        0x0 arch/arm/cpu/armv7/start.o

.interp         0x0000000017879e74       0x11
 *(.interp*)
 .interp        0x0000000017879e74       0x11 arch/arm/cpu/armv7/start.o

.gnu.hash
 *(.gnu.hash)

.gnu            0x0000000017879e88        0x0
 *(.gnu*)
 .gnu.version_d
                0x0000000000000000        0x0 arch/arm/cpu/armv7/start.o
 .gnu.version   0x0000000000000000        0x0 arch/arm/cpu/armv7/start.o
 .gnu.version_r
                0x0000000000000000        0x0 arch/arm/cpu/armv7/start.o

.ARM.exidx
 *(.ARM.exidx*)

.gnu.linkonce.armexidx
 *(.gnu.linkonce.armexidx.*)
LOAD arch/arm/cpu/armv7/start.o
START GROUP
LOAD arch/arm/cpu/built-in.o
LOAD arch/arm/cpu/armv7/built-in.o
LOAD arch/arm/imx-common/built-in.o
LOAD arch/arm/lib/built-in.o
LOAD board/freescale/common/built-in.o
LOAD board/freescale/mx6sabresd/built-in.o
LOAD cmd/built-in.o
LOAD common/built-in.o
LOAD disk/built-in.o
LOAD drivers/built-in.o
LOAD drivers/dma/built-in.o
LOAD drivers/gpio/built-in.o
LOAD drivers/i2c/built-in.o
LOAD drivers/mmc/built-in.o
LOAD drivers/mtd/built-in.o
LOAD drivers/mtd/onenand/built-in.o
LOAD drivers/mtd/spi/built-in.o
LOAD drivers/net/built-in.o
LOAD drivers/net/phy/built-in.o
LOAD drivers/pci/built-in.o
LOAD drivers/power/built-in.o
LOAD drivers/power/battery/built-in.o
LOAD drivers/power/fuel_gauge/built-in.o
LOAD drivers/power/mfd/built-in.o
LOAD drivers/power/pmic/built-in.o
LOAD drivers/power/regulator/built-in.o
LOAD drivers/serial/built-in.o
LOAD drivers/spi/built-in.o
LOAD drivers/usb/common/built-in.o
LOAD drivers/usb/dwc3/built-in.o
LOAD drivers/usb/emul/built-in.o
LOAD drivers/usb/eth/built-in.o
LOAD drivers/usb/gadget/built-in.o
LOAD drivers/usb/gadget/udc/built-in.o
LOAD drivers/usb/host/built-in.o
LOAD drivers/usb/musb-new/built-in.o
LOAD drivers/usb/musb/built-in.o
LOAD drivers/usb/phy/built-in.o
LOAD drivers/usb/ulpi/built-in.o
LOAD fs/built-in.o
LOAD lib/built-in.o
LOAD net/built-in.o
LOAD test/built-in.o
LOAD test/dm/built-in.o
END GROUP
LOAD arch/arm/lib/eabi_compat.o
LOAD /opt/poky/1.5.1/sysroots/cortexa9hf-vfp-neon-poky-linux-gnueabi/usr/lib/arm-poky-linux-gnueabi/4.8.1/libgcc.a
OUTPUT(u-boot elf32-littlearm)

.ARM.attributes
                0x0000000000000000       0x2d
 .ARM.attributes
                0x0000000000000000       0x1d arch/arm/cpu/armv7/start.o
 .ARM.attributes
                0x000000000000001d       0x2b arch/arm/cpu/armv7/built-in.o
 .ARM.attributes
                0x0000000000000048       0x2d arch/arm/imx-common/built-in.o
 .ARM.attributes
                0x0000000000000075       0x29 arch/arm/lib/built-in.o
 .ARM.attributes
                0x000000000000009e       0x2d board/freescale/common/built-in.o
 .ARM.attributes
                0x00000000000000cb       0x2d board/freescale/mx6sabresd/built-in.o
 .ARM.attributes
                0x00000000000000f8       0x2d cmd/built-in.o
 .ARM.attributes
                0x0000000000000125       0x2d common/built-in.o
 .ARM.attributes
                0x0000000000000152       0x2d disk/built-in.o
 .ARM.attributes
                0x000000000000017f       0x2d drivers/built-in.o
 .ARM.attributes
                0x00000000000001ac       0x2d drivers/gpio/built-in.o
 .ARM.attributes
                0x00000000000001d9       0x2d drivers/i2c/built-in.o
 .ARM.attributes
                0x0000000000000206       0x2d drivers/mmc/built-in.o
 .ARM.attributes
                0x0000000000000233       0x2d drivers/mtd/built-in.o
 .ARM.attributes
                0x0000000000000260       0x2d drivers/mtd/spi/built-in.o
 .ARM.attributes
                0x000000000000028d       0x2d drivers/net/built-in.o
 .ARM.attributes
                0x00000000000002ba       0x2d drivers/net/phy/built-in.o
 .ARM.attributes
                0x00000000000002e7       0x2d drivers/pci/built-in.o
 .ARM.attributes
                0x0000000000000314       0x2d drivers/power/built-in.o
 .ARM.attributes
                0x0000000000000341       0x2d drivers/power/pmic/built-in.o
 .ARM.attributes
                0x000000000000036e       0x2d drivers/serial/built-in.o
 .ARM.attributes
                0x000000000000039b       0x2d drivers/spi/built-in.o
 .ARM.attributes
                0x00000000000003c8       0x2d drivers/usb/eth/built-in.o
 .ARM.attributes
                0x00000000000003f5       0x2d drivers/usb/gadget/built-in.o
 .ARM.attributes
                0x0000000000000422       0x2d drivers/usb/host/built-in.o
 .ARM.attributes
                0x000000000000044f       0x2d fs/built-in.o
 .ARM.attributes
                0x000000000000047c       0x2d lib/built-in.o
 .ARM.attributes
                0x00000000000004a9       0x2d net/built-in.o
 .ARM.attributes
                0x00000000000004d6       0x2d test/dm/built-in.o
 .ARM.attributes
                0x0000000000000503       0x2d arch/arm/lib/eabi_compat.o
 .ARM.attributes
                0x0000000000000530       0x23 /opt/poky/1.5.1/sysroots/cortexa9hf-vfp-neon-poky-linux-gnueabi/usr/lib/arm-poky-linux-gnueabi/4.8.1/libgcc.a(_udivsi3.o)
 .ARM.attributes
                0x0000000000000553       0x23 /opt/poky/1.5.1/sysroots/cortexa9hf-vfp-neon-poky-linux-gnueabi/usr/lib/arm-poky-linux-gnueabi/4.8.1/libgcc.a(_divsi3.o)
 .ARM.attributes
                0x0000000000000576       0x23 /opt/poky/1.5.1/sysroots/cortexa9hf-vfp-neon-poky-linux-gnueabi/usr/lib/arm-poky-linux-gnueabi/4.8.1/libgcc.a(_lshrdi3.o)
 .ARM.attributes
                0x0000000000000599       0x23 /opt/poky/1.5.1/sysroots/cortexa9hf-vfp-neon-poky-linux-gnueabi/usr/lib/arm-poky-linux-gnueabi/4.8.1/libgcc.a(_ashldi3.o)
 .ARM.attributes
                0x00000000000005bc       0x23 /opt/poky/1.5.1/sysroots/cortexa9hf-vfp-neon-poky-linux-gnueabi/usr/lib/arm-poky-linux-gnueabi/4.8.1/libgcc.a(_dvmd_lnx.o)

.comment        0x0000000000000000       0x11
 .comment       0x0000000000000000       0x11 arch/arm/cpu/armv7/built-in.o
                                         0x7e (size before relaxing)
 .comment       0x0000000000000000       0xb4 arch/arm/imx-common/built-in.o
 .comment       0x0000000000000000       0xa2 arch/arm/lib/built-in.o
 .comment       0x0000000000000000       0x12 board/freescale/common/built-in.o
 .comment       0x0000000000000000       0x12 board/freescale/mx6sabresd/built-in.o
 .comment       0x0000000000000000      0x2e2 cmd/built-in.o
 .comment       0x0000000000000000      0x2ac common/built-in.o
 .comment       0x0000000000000000       0x24 disk/built-in.o
 .comment       0x0000000000000000      0x19e drivers/built-in.o
 .comment       0x0000000000000000       0x12 drivers/gpio/built-in.o
 .comment       0x0000000000000000       0x24 drivers/i2c/built-in.o
 .comment       0x0000000000000000       0x48 drivers/mmc/built-in.o
 .comment       0x0000000000000000       0x24 drivers/mtd/built-in.o
 .comment       0x0000000000000000       0x48 drivers/mtd/spi/built-in.o
 .comment       0x0000000000000000       0x12 drivers/net/built-in.o
 .comment       0x0000000000000000       0x24 drivers/net/phy/built-in.o
 .comment       0x0000000000000000       0x5a drivers/pci/built-in.o
 .comment       0x0000000000000000       0x24 drivers/power/built-in.o
 .comment       0x0000000000000000       0x12 drivers/power/pmic/built-in.o
 .comment       0x0000000000000000       0x24 drivers/serial/built-in.o
 .comment       0x0000000000000000       0x24 drivers/spi/built-in.o
 .comment       0x0000000000000000       0x24 drivers/usb/eth/built-in.o
 .comment       0x0000000000000000       0x90 drivers/usb/gadget/built-in.o
 .comment       0x0000000000000000       0x24 drivers/usb/host/built-in.o
 .comment       0x0000000000000000       0xa2 fs/built-in.o
 .comment       0x0000000000000000      0x318 lib/built-in.o
 .comment       0x0000000000000000       0xa2 net/built-in.o
 .comment       0x0000000000000000       0x12 test/dm/built-in.o
 .comment       0x0000000000000000       0x12 arch/arm/lib/eabi_compat.o

.note.GNU-stack
                0x0000000000000000        0x0
 .note.GNU-stack
                0x0000000000000000        0x0 arch/arm/cpu/armv7/built-in.o
 .note.GNU-stack
                0x0000000000000000        0x0 arch/arm/imx-common/built-in.o
 .note.GNU-stack
                0x0000000000000000        0x0 arch/arm/lib/built-in.o
 .note.GNU-stack
                0x0000000000000000        0x0 board/freescale/common/built-in.o
 .note.GNU-stack
                0x0000000000000000        0x0 board/freescale/mx6sabresd/built-in.o
 .note.GNU-stack
                0x0000000000000000        0x0 cmd/built-in.o
 .note.GNU-stack
                0x0000000000000000        0x0 common/built-in.o
 .note.GNU-stack
                0x0000000000000000        0x0 disk/built-in.o
 .note.GNU-stack
                0x0000000000000000        0x0 drivers/built-in.o
 .note.GNU-stack
                0x0000000000000000        0x0 drivers/gpio/built-in.o
 .note.GNU-stack
                0x0000000000000000        0x0 drivers/i2c/built-in.o
 .note.GNU-stack
                0x0000000000000000        0x0 drivers/mmc/built-in.o
 .note.GNU-stack
                0x0000000000000000        0x0 drivers/mtd/built-in.o
 .note.GNU-stack
                0x0000000000000000        0x0 drivers/mtd/spi/built-in.o
 .note.GNU-stack
                0x0000000000000000        0x0 drivers/net/built-in.o
 .note.GNU-stack
                0x0000000000000000        0x0 drivers/net/phy/built-in.o
 .note.GNU-stack
                0x0000000000000000        0x0 drivers/pci/built-in.o
 .note.GNU-stack
                0x0000000000000000        0x0 drivers/power/built-in.o
 .note.GNU-stack
                0x0000000000000000        0x0 drivers/power/pmic/built-in.o
 .note.GNU-stack
                0x0000000000000000        0x0 drivers/serial/built-in.o
 .note.GNU-stack
                0x0000000000000000        0x0 drivers/spi/built-in.o
 .note.GNU-stack
                0x0000000000000000        0x0 drivers/usb/eth/built-in.o
 .note.GNU-stack
                0x0000000000000000        0x0 drivers/usb/gadget/built-in.o
 .note.GNU-stack
                0x0000000000000000        0x0 drivers/usb/host/built-in.o
 .note.GNU-stack
                0x0000000000000000        0x0 fs/built-in.o
 .note.GNU-stack
                0x0000000000000000        0x0 lib/built-in.o
 .note.GNU-stack
                0x0000000000000000        0x0 net/built-in.o
 .note.GNU-stack
                0x0000000000000000        0x0 test/dm/built-in.o
 .note.GNU-stack
                0x0000000000000000        0x0 arch/arm/lib/eabi_compat.o
 .note.GNU-stack
                0x0000000000000000        0x0 /opt/poky/1.5.1/sysroots/cortexa9hf-vfp-neon-poky-linux-gnueabi/usr/lib/arm-poky-linux-gnueabi/4.8.1/libgcc.a(_udivsi3.o)
 .note.GNU-stack
                0x0000000000000000        0x0 /opt/poky/1.5.1/sysroots/cortexa9hf-vfp-neon-poky-linux-gnueabi/usr/lib/arm-poky-linux-gnueabi/4.8.1/libgcc.a(_divsi3.o)
 .note.GNU-stack
                0x0000000000000000        0x0 /opt/poky/1.5.1/sysroots/cortexa9hf-vfp-neon-poky-linux-gnueabi/usr/lib/arm-poky-linux-gnueabi/4.8.1/libgcc.a(_lshrdi3.o)
 .note.GNU-stack
                0x0000000000000000        0x0 /opt/poky/1.5.1/sysroots/cortexa9hf-vfp-neon-poky-linux-gnueabi/usr/lib/arm-poky-linux-gnueabi/4.8.1/libgcc.a(_ashldi3.o)
 .note.GNU-stack
                0x0000000000000000        0x0 /opt/poky/1.5.1/sysroots/cortexa9hf-vfp-neon-poky-linux-gnueabi/usr/lib/arm-poky-linux-gnueabi/4.8.1/libgcc.a(_dvmd_lnx.o)

.debug_line     0x0000000000000000    0x288f6
 .debug_line    0x0000000000000000       0x93 arch/arm/cpu/armv7/start.o
 .debug_line    0x0000000000000093     0x109a arch/arm/cpu/armv7/built-in.o
 .debug_line    0x000000000000112d      0xfae arch/arm/imx-common/built-in.o
 .debug_line    0x00000000000020db      0xe90 arch/arm/lib/built-in.o
 .debug_line    0x0000000000002f6b      0x14f board/freescale/common/built-in.o
 .debug_line    0x00000000000030ba      0x448 board/freescale/mx6sabresd/built-in.o
 .debug_line    0x0000000000003502     0x54a4 cmd/built-in.o
 .debug_line    0x00000000000089a6     0x752e common/built-in.o
 .debug_line    0x000000000000fed4      0x6ac disk/built-in.o
 .debug_line    0x0000000000010580     0x441a drivers/built-in.o
 .debug_line    0x000000000001499a      0x17d drivers/gpio/built-in.o
 .debug_line    0x0000000000014b17      0x5ee drivers/i2c/built-in.o
 .debug_line    0x0000000000015105     0x10b7 drivers/mmc/built-in.o
 .debug_line    0x00000000000161bc      0x67b drivers/mtd/built-in.o
 .debug_line    0x0000000000016837      0x8a7 drivers/mtd/spi/built-in.o
 .debug_line    0x00000000000170de      0x574 drivers/net/built-in.o
 .debug_line    0x0000000000017652      0x7c1 drivers/net/phy/built-in.o
 .debug_line    0x0000000000017e13      0xdc3 drivers/pci/built-in.o
 .debug_line    0x0000000000018bd6      0x390 drivers/power/built-in.o
 .debug_line    0x0000000000018f66      0x111 drivers/power/pmic/built-in.o
 .debug_line    0x0000000000019077      0x53c drivers/serial/built-in.o
 .debug_line    0x00000000000195b3      0x447 drivers/spi/built-in.o
 .debug_line    0x00000000000199fa      0x5a4 drivers/usb/eth/built-in.o
 .debug_line    0x0000000000019f9e     0x2e0e drivers/usb/gadget/built-in.o
 .debug_line    0x000000000001cdac      0x9c2 drivers/usb/host/built-in.o
 .debug_line    0x000000000001d76e     0x2a6e fs/built-in.o
 .debug_line    0x00000000000201dc     0x6338 lib/built-in.o
 .debug_line    0x0000000000026514     0x1d48 net/built-in.o
 .debug_line    0x000000000002825c      0x116 test/dm/built-in.o
 .debug_line    0x0000000000028372      0x122 arch/arm/lib/eabi_compat.o
 .debug_line    0x0000000000028494       0xf0 /opt/poky/1.5.1/sysroots/cortexa9hf-vfp-neon-poky-linux-gnueabi/usr/lib/arm-poky-linux-gnueabi/4.8.1/libgcc.a(_udivsi3.o)
 .debug_line    0x0000000000028584       0xfc /opt/poky/1.5.1/sysroots/cortexa9hf-vfp-neon-poky-linux-gnueabi/usr/lib/arm-poky-linux-gnueabi/4.8.1/libgcc.a(_divsi3.o)
 .debug_line    0x0000000000028680       0xd2 /opt/poky/1.5.1/sysroots/cortexa9hf-vfp-neon-poky-linux-gnueabi/usr/lib/arm-poky-linux-gnueabi/4.8.1/libgcc.a(_lshrdi3.o)
 .debug_line    0x0000000000028752       0xd2 /opt/poky/1.5.1/sysroots/cortexa9hf-vfp-neon-poky-linux-gnueabi/usr/lib/arm-poky-linux-gnueabi/4.8.1/libgcc.a(_ashldi3.o)
 .debug_line    0x0000000000028824       0xd2 /opt/poky/1.5.1/sysroots/cortexa9hf-vfp-neon-poky-linux-gnueabi/usr/lib/arm-poky-linux-gnueabi/4.8.1/libgcc.a(_dvmd_lnx.o)

.debug_info     0x0000000000000000   0x10ed6f
 .debug_info    0x0000000000000000       0x5c arch/arm/cpu/armv7/start.o
 .debug_info    0x000000000000005c     0x985f arch/arm/cpu/armv7/built-in.o
 .debug_info    0x00000000000098bb     0x8396 arch/arm/imx-common/built-in.o
 .debug_info    0x0000000000011c51     0x5a89 arch/arm/lib/built-in.o
 .debug_info    0x00000000000176da      0xa97 board/freescale/common/built-in.o
 .debug_info    0x0000000000018171     0x5ca2 board/freescale/mx6sabresd/built-in.o
 .debug_info    0x000000000001de13    0x27cf4 cmd/built-in.o
 .debug_info    0x0000000000045b07    0x2fb41 common/built-in.o
 .debug_info    0x0000000000075648     0x27c6 disk/built-in.o
 .debug_info    0x0000000000077e0e    0x1d36d drivers/built-in.o
 .debug_info    0x000000000009517b      0x6f8 drivers/gpio/built-in.o
 .debug_info    0x0000000000095873     0x33cf drivers/i2c/built-in.o
 .debug_info    0x0000000000098c42     0x6d86 drivers/mmc/built-in.o
 .debug_info    0x000000000009f9c8     0x2103 drivers/mtd/built-in.o
 .debug_info    0x00000000000a1acb     0x3d46 drivers/mtd/spi/built-in.o
 .debug_info    0x00000000000a5811     0x30f3 drivers/net/built-in.o
 .debug_info    0x00000000000a8904     0x32a0 drivers/net/phy/built-in.o
 .debug_info    0x00000000000abba4     0x6278 drivers/pci/built-in.o
 .debug_info    0x00000000000b1e1c     0x1a16 drivers/power/built-in.o
 .debug_info    0x00000000000b3832      0x822 drivers/power/pmic/built-in.o
 .debug_info    0x00000000000b4054     0x20a1 drivers/serial/built-in.o
 .debug_info    0x00000000000b60f5     0x1625 drivers/spi/built-in.o
 .debug_info    0x00000000000b771a     0x2c38 drivers/usb/eth/built-in.o
 .debug_info    0x00000000000ba352    0x13780 drivers/usb/gadget/built-in.o
 .debug_info    0x00000000000cdad2     0x485d drivers/usb/host/built-in.o
 .debug_info    0x00000000000d232f    0x110ed fs/built-in.o
 .debug_info    0x00000000000e341c    0x1f5ad lib/built-in.o
 .debug_info    0x00000000001029c9     0xb1eb net/built-in.o
 .debug_info    0x000000000010dbb4      0x5e8 test/dm/built-in.o
 .debug_info    0x000000000010e19c      0x4cb arch/arm/lib/eabi_compat.o
 .debug_info    0x000000000010e667      0x168 /opt/poky/1.5.1/sysroots/cortexa9hf-vfp-neon-poky-linux-gnueabi/usr/lib/arm-poky-linux-gnueabi/4.8.1/libgcc.a(_udivsi3.o)
 .debug_info    0x000000000010e7cf      0x168 /opt/poky/1.5.1/sysroots/cortexa9hf-vfp-neon-poky-linux-gnueabi/usr/lib/arm-poky-linux-gnueabi/4.8.1/libgcc.a(_divsi3.o)
 .debug_info    0x000000000010e937      0x168 /opt/poky/1.5.1/sysroots/cortexa9hf-vfp-neon-poky-linux-gnueabi/usr/lib/arm-poky-linux-gnueabi/4.8.1/libgcc.a(_lshrdi3.o)
 .debug_info    0x000000000010ea9f      0x168 /opt/poky/1.5.1/sysroots/cortexa9hf-vfp-neon-poky-linux-gnueabi/usr/lib/arm-poky-linux-gnueabi/4.8.1/libgcc.a(_ashldi3.o)
 .debug_info    0x000000000010ec07      0x168 /opt/poky/1.5.1/sysroots/cortexa9hf-vfp-neon-poky-linux-gnueabi/usr/lib/arm-poky-linux-gnueabi/4.8.1/libgcc.a(_dvmd_lnx.o)

.debug_abbrev   0x0000000000000000    0x2c4ac
 .debug_abbrev  0x0000000000000000       0x14 arch/arm/cpu/armv7/start.o
 .debug_abbrev  0x0000000000000014     0x12ca arch/arm/cpu/armv7/built-in.o
 .debug_abbrev  0x00000000000012de     0x15b4 arch/arm/imx-common/built-in.o
 .debug_abbrev  0x0000000000002892     0x1379 arch/arm/lib/built-in.o
 .debug_abbrev  0x0000000000003c0b      0x1f8 board/freescale/common/built-in.o
 .debug_abbrev  0x0000000000003e03      0x510 board/freescale/mx6sabresd/built-in.o
 .debug_abbrev  0x0000000000004313     0x70ed cmd/built-in.o
 .debug_abbrev  0x000000000000b400     0x7c9e common/built-in.o
 .debug_abbrev  0x000000000001309e      0x837 disk/built-in.o
 .debug_abbrev  0x00000000000138d5     0x4afa drivers/built-in.o
 .debug_abbrev  0x00000000000183cf      0x216 drivers/gpio/built-in.o
 .debug_abbrev  0x00000000000185e5      0x884 drivers/i2c/built-in.o
 .debug_abbrev  0x0000000000018e69     0x109e drivers/mmc/built-in.o
 .debug_abbrev  0x0000000000019f07      0x60c drivers/mtd/built-in.o
 .debug_abbrev  0x000000000001a513      0xac5 drivers/mtd/spi/built-in.o
 .debug_abbrev  0x000000000001afd8      0x5ab drivers/net/built-in.o
 .debug_abbrev  0x000000000001b583      0x747 drivers/net/phy/built-in.o
 .debug_abbrev  0x000000000001bcca      0xf8a drivers/pci/built-in.o
 .debug_abbrev  0x000000000001cc54      0x5b2 drivers/power/built-in.o
 .debug_abbrev  0x000000000001d206      0x1d8 drivers/power/pmic/built-in.o
 .debug_abbrev  0x000000000001d3de      0x704 drivers/serial/built-in.o
 .debug_abbrev  0x000000000001dae2      0x628 drivers/spi/built-in.o
 .debug_abbrev  0x000000000001e10a      0x749 drivers/usb/eth/built-in.o
 .debug_abbrev  0x000000000001e853     0x2465 drivers/usb/gadget/built-in.o
 .debug_abbrev  0x0000000000020cb8      0x922 drivers/usb/host/built-in.o
 .debug_abbrev  0x00000000000215da     0x21c8 fs/built-in.o
 .debug_abbrev  0x00000000000237a2     0x66d4 lib/built-in.o
 .debug_abbrev  0x0000000000029e76     0x2273 net/built-in.o
 .debug_abbrev  0x000000000002c0e9      0x1a7 test/dm/built-in.o
 .debug_abbrev  0x000000000002c290      0x1b8 arch/arm/lib/eabi_compat.o
 .debug_abbrev  0x000000000002c448       0x14 /opt/poky/1.5.1/sysroots/cortexa9hf-vfp-neon-poky-linux-gnueabi/usr/lib/arm-poky-linux-gnueabi/4.8.1/libgcc.a(_udivsi3.o)
 .debug_abbrev  0x000000000002c45c       0x14 /opt/poky/1.5.1/sysroots/cortexa9hf-vfp-neon-poky-linux-gnueabi/usr/lib/arm-poky-linux-gnueabi/4.8.1/libgcc.a(_divsi3.o)
 .debug_abbrev  0x000000000002c470       0x14 /opt/poky/1.5.1/sysroots/cortexa9hf-vfp-neon-poky-linux-gnueabi/usr/lib/arm-poky-linux-gnueabi/4.8.1/libgcc.a(_lshrdi3.o)
 .debug_abbrev  0x000000000002c484       0x14 /opt/poky/1.5.1/sysroots/cortexa9hf-vfp-neon-poky-linux-gnueabi/usr/lib/arm-poky-linux-gnueabi/4.8.1/libgcc.a(_ashldi3.o)
 .debug_abbrev  0x000000000002c498       0x14 /opt/poky/1.5.1/sysroots/cortexa9hf-vfp-neon-poky-linux-gnueabi/usr/lib/arm-poky-linux-gnueabi/4.8.1/libgcc.a(_dvmd_lnx.o)

.debug_aranges  0x0000000000000000     0x56e8
 .debug_aranges
                0x0000000000000000       0x20 arch/arm/cpu/armv7/start.o
 .debug_aranges
                0x0000000000000020      0x2d8 arch/arm/cpu/armv7/built-in.o
 .debug_aranges
                0x00000000000002f8      0x1f8 arch/arm/imx-common/built-in.o
 .debug_aranges
                0x00000000000004f0      0x2b0 arch/arm/lib/built-in.o
 .debug_aranges
                0x00000000000007a0       0x28 board/freescale/common/built-in.o
 .debug_aranges
                0x00000000000007c8       0x98 board/freescale/mx6sabresd/built-in.o
 .debug_aranges
                0x0000000000000860      0x9a0 cmd/built-in.o
 .debug_aranges
                0x0000000000001200     0x10d0 common/built-in.o
 .debug_aranges
                0x00000000000022d0       0x98 disk/built-in.o
 .debug_aranges
                0x0000000000002368      0x900 drivers/built-in.o
 .debug_aranges
                0x0000000000002c68       0x48 drivers/gpio/built-in.o
 .debug_aranges
                0x0000000000002cb0      0x120 drivers/i2c/built-in.o
 .debug_aranges
                0x0000000000002dd0      0x200 drivers/mmc/built-in.o
 .debug_aranges
                0x0000000000002fd0      0x130 drivers/mtd/built-in.o
 .debug_aranges
                0x0000000000003100       0xf8 drivers/mtd/spi/built-in.o
 .debug_aranges
                0x00000000000031f8       0x80 drivers/net/built-in.o
 .debug_aranges
                0x0000000000003278      0x100 drivers/net/phy/built-in.o
 .debug_aranges
                0x0000000000003378      0x290 drivers/pci/built-in.o
 .debug_aranges
                0x0000000000003608       0x78 drivers/power/built-in.o
 .debug_aranges
                0x0000000000003680       0x20 drivers/power/pmic/built-in.o
 .debug_aranges
                0x00000000000036a0      0x110 drivers/serial/built-in.o
 .debug_aranges
                0x00000000000037b0       0x98 drivers/spi/built-in.o
 .debug_aranges
                0x0000000000003848       0xc0 drivers/usb/eth/built-in.o
 .debug_aranges
                0x0000000000003908      0x4d0 drivers/usb/gadget/built-in.o
 .debug_aranges
                0x0000000000003dd8      0x120 drivers/usb/host/built-in.o
 .debug_aranges
                0x0000000000003ef8      0x440 fs/built-in.o
 .debug_aranges
                0x0000000000004338      0xea0 lib/built-in.o
 .debug_aranges
                0x00000000000051d8      0x3f8 net/built-in.o
 .debug_aranges
                0x00000000000055d0       0x38 test/dm/built-in.o
 .debug_aranges
                0x0000000000005608       0x40 arch/arm/lib/eabi_compat.o
 .debug_aranges
                0x0000000000005648       0x20 /opt/poky/1.5.1/sysroots/cortexa9hf-vfp-neon-poky-linux-gnueabi/usr/lib/arm-poky-linux-gnueabi/4.8.1/libgcc.a(_udivsi3.o)
 .debug_aranges
                0x0000000000005668       0x20 /opt/poky/1.5.1/sysroots/cortexa9hf-vfp-neon-poky-linux-gnueabi/usr/lib/arm-poky-linux-gnueabi/4.8.1/libgcc.a(_divsi3.o)
 .debug_aranges
                0x0000000000005688       0x20 /opt/poky/1.5.1/sysroots/cortexa9hf-vfp-neon-poky-linux-gnueabi/usr/lib/arm-poky-linux-gnueabi/4.8.1/libgcc.a(_lshrdi3.o)
 .debug_aranges
                0x00000000000056a8       0x20 /opt/poky/1.5.1/sysroots/cortexa9hf-vfp-neon-poky-linux-gnueabi/usr/lib/arm-poky-linux-gnueabi/4.8.1/libgcc.a(_ashldi3.o)
 .debug_aranges
                0x00000000000056c8       0x20 /opt/poky/1.5.1/sysroots/cortexa9hf-vfp-neon-poky-linux-gnueabi/usr/lib/arm-poky-linux-gnueabi/4.8.1/libgcc.a(_dvmd_lnx.o)

.debug_frame    0x0000000000000000     0xe25c
 .debug_frame   0x0000000000000000      0x588 arch/arm/cpu/armv7/built-in.o
 .debug_frame   0x0000000000000588      0x3b8 arch/arm/imx-common/built-in.o
 .debug_frame   0x0000000000000940      0x46c arch/arm/lib/built-in.o
 .debug_frame   0x0000000000000dac       0x58 board/freescale/common/built-in.o
 .debug_frame   0x0000000000000e04      0x170 board/freescale/mx6sabresd/built-in.o
 .debug_frame   0x0000000000000f74     0x1774 cmd/built-in.o
 .debug_frame   0x00000000000026e8     0x2d3c common/built-in.o
 .debug_frame   0x0000000000005424      0x1c0 disk/built-in.o
 .debug_frame   0x00000000000055e4     0x17fc drivers/built-in.o
 .debug_frame   0x0000000000006de0       0x78 drivers/gpio/built-in.o
 .debug_frame   0x0000000000006e58      0x32c drivers/i2c/built-in.o
 .debug_frame   0x0000000000007184      0x56c drivers/mmc/built-in.o
 .debug_frame   0x00000000000076f0      0x3d8 drivers/mtd/built-in.o
 .debug_frame   0x0000000000007ac8      0x2a4 drivers/mtd/spi/built-in.o
 .debug_frame   0x0000000000007d6c      0x18c drivers/net/built-in.o
 .debug_frame   0x0000000000007ef8      0x2c8 drivers/net/phy/built-in.o
 .debug_frame   0x00000000000081c0      0x780 drivers/pci/built-in.o
 .debug_frame   0x0000000000008940      0x128 drivers/power/built-in.o
 .debug_frame   0x0000000000008a68       0x28 drivers/power/pmic/built-in.o
 .debug_frame   0x0000000000008a90      0x2a4 drivers/serial/built-in.o
 .debug_frame   0x0000000000008d34      0x160 drivers/spi/built-in.o
 .debug_frame   0x0000000000008e94      0x22c drivers/usb/eth/built-in.o
 .debug_frame   0x00000000000090c0      0xd8c drivers/usb/gadget/built-in.o
 .debug_frame   0x0000000000009e4c      0x310 drivers/usb/host/built-in.o
 .debug_frame   0x000000000000a15c      0xd44 fs/built-in.o
 .debug_frame   0x000000000000aea0     0x27a8 lib/built-in.o
 .debug_frame   0x000000000000d648      0xb00 net/built-in.o
 .debug_frame   0x000000000000e148       0x6c test/dm/built-in.o
 .debug_frame   0x000000000000e1b4       0x68 arch/arm/lib/eabi_compat.o
 .debug_frame   0x000000000000e21c       0x20 /opt/poky/1.5.1/sysroots/cortexa9hf-vfp-neon-poky-linux-gnueabi/usr/lib/arm-poky-linux-gnueabi/4.8.1/libgcc.a(_udivsi3.o)
 .debug_frame   0x000000000000e23c       0x20 /opt/poky/1.5.1/sysroots/cortexa9hf-vfp-neon-poky-linux-gnueabi/usr/lib/arm-poky-linux-gnueabi/4.8.1/libgcc.a(_divsi3.o)

.debug_str      0x0000000000000000    0x27021
 .debug_str     0x0000000000000000     0x6761 arch/arm/cpu/armv7/built-in.o
                                       0x9442 (size before relaxing)
 .debug_str     0x0000000000006761     0x1115 arch/arm/imx-common/built-in.o
                                       0x97c3 (size before relaxing)
 .debug_str     0x0000000000007876     0x1372 arch/arm/lib/built-in.o
                                       0x458b (size before relaxing)
 .debug_str     0x0000000000008be8      0x467 board/freescale/common/built-in.o
                                        0x88b (size before relaxing)
 .debug_str     0x000000000000904f     0x8361 board/freescale/mx6sabresd/built-in.o
                                       0x9d0c (size before relaxing)
 .debug_str     0x00000000000113b0     0x4034 cmd/built-in.o
                                      0x154c5 (size before relaxing)
 .debug_str     0x00000000000153e4     0x3b57 common/built-in.o
                                      0x1b41f (size before relaxing)
 .debug_str     0x0000000000018f3b      0x2c6 disk/built-in.o
                                       0x1103 (size before relaxing)
 .debug_str     0x0000000000019201     0x31cc drivers/built-in.o
                                      0x107c7 (size before relaxing)
 .debug_str     0x000000000001c3cd       0x87 drivers/gpio/built-in.o
                                        0x4cf (size before relaxing)
 .debug_str     0x000000000001c454      0x261 drivers/i2c/built-in.o
                                       0x1878 (size before relaxing)
 .debug_str     0x000000000001c6b5      0x684 drivers/mmc/built-in.o
                                       0x3287 (size before relaxing)
 .debug_str     0x000000000001cd39      0x461 drivers/mtd/built-in.o
                                        0xeba (size before relaxing)
 .debug_str     0x000000000001d19a      0x4c0 drivers/mtd/spi/built-in.o
                                       0x21df (size before relaxing)
 .debug_str     0x000000000001d65a      0x748 drivers/net/built-in.o
                                       0x1157 (size before relaxing)
 .debug_str     0x000000000001dda2      0x27b drivers/net/phy/built-in.o
                                       0x1860 (size before relaxing)
 .debug_str     0x000000000001e01d      0x7cc drivers/pci/built-in.o
                                       0x293c (size before relaxing)
 .debug_str     0x000000000001e7e9      0x118 drivers/power/built-in.o
                                        0xcc9 (size before relaxing)
 .debug_str     0x000000000001e901       0x3f drivers/power/pmic/built-in.o
                                        0x853 (size before relaxing)
 .debug_str     0x000000000001e940      0x1ef drivers/serial/built-in.o
                                       0x165d (size before relaxing)
 .debug_str     0x000000000001eb2f      0x158 drivers/spi/built-in.o
                                        0xc23 (size before relaxing)
 .debug_str     0x000000000001ec87      0x34f drivers/usb/eth/built-in.o
                                       0x150c (size before relaxing)
 .debug_str     0x000000000001efd6     0x21d1 drivers/usb/gadget/built-in.o
                                       0x7bb3 (size before relaxing)
 .debug_str     0x00000000000211a7      0x5c3 drivers/usb/host/built-in.o
                                       0x2283 (size before relaxing)
 .debug_str     0x000000000002176a     0x1adb fs/built-in.o
                                       0x69d2 (size before relaxing)
 .debug_str     0x0000000000023245     0x2a53 lib/built-in.o
                                      0x116d5 (size before relaxing)
 .debug_str     0x0000000000025c98     0x129c net/built-in.o
                                       0x7549 (size before relaxing)
 .debug_str     0x0000000000026f34       0x79 test/dm/built-in.o
                                        0x4f2 (size before relaxing)
 .debug_str     0x0000000000026fad       0x74 arch/arm/lib/eabi_compat.o
                                        0x468 (size before relaxing)

.debug_loc      0x0000000000000000    0x8785b
 .debug_loc     0x0000000000000000     0x1f12 arch/arm/cpu/armv7/built-in.o
 .debug_loc     0x0000000000001f12      0xd8d arch/arm/imx-common/built-in.o
 .debug_loc     0x0000000000002c9f      0xbda arch/arm/lib/built-in.o
 .debug_loc     0x0000000000003879      0x173 board/freescale/common/built-in.o
 .debug_loc     0x00000000000039ec      0x51c board/freescale/mx6sabresd/built-in.o
 .debug_loc     0x0000000000003f08     0xee1f cmd/built-in.o
 .debug_loc     0x0000000000012d27    0x11669 common/built-in.o
 .debug_loc     0x0000000000024390     0x114f disk/built-in.o
 .debug_loc     0x00000000000254df     0xb803 drivers/built-in.o
 .debug_loc     0x0000000000030ce2      0x523 drivers/gpio/built-in.o
 .debug_loc     0x0000000000031205     0x10d6 drivers/i2c/built-in.o
 .debug_loc     0x00000000000322db     0x2cd8 drivers/mmc/built-in.o
 .debug_loc     0x0000000000034fb3     0x13db drivers/mtd/built-in.o
 .debug_loc     0x000000000003638e     0x22aa drivers/mtd/spi/built-in.o
 .debug_loc     0x0000000000038638     0x14d0 drivers/net/built-in.o
 .debug_loc     0x0000000000039b08     0x1c66 drivers/net/phy/built-in.o
 .debug_loc     0x000000000003b76e     0x2021 drivers/pci/built-in.o
 .debug_loc     0x000000000003d78f      0x65e drivers/power/built-in.o
 .debug_loc     0x000000000003dded       0x3f drivers/power/pmic/built-in.o
 .debug_loc     0x000000000003de2c      0x531 drivers/serial/built-in.o
 .debug_loc     0x000000000003e35d      0xcfb drivers/spi/built-in.o
 .debug_loc     0x000000000003f058      0xb79 drivers/usb/eth/built-in.o
 .debug_loc     0x000000000003fbd1     0x94d4 drivers/usb/gadget/built-in.o
 .debug_loc     0x00000000000490a5     0x2131 drivers/usb/host/built-in.o
 .debug_loc     0x000000000004b1d6    0x25c25 fs/built-in.o
 .debug_loc     0x0000000000070dfb    0x12f00 lib/built-in.o
 .debug_loc     0x0000000000083cfb     0x392f net/built-in.o
 .debug_loc     0x000000000008762a      0x129 test/dm/built-in.o
 .debug_loc     0x0000000000087753      0x108 arch/arm/lib/eabi_compat.o

.debug_ranges   0x0000000000000000     0xa7a8
 .debug_ranges  0x0000000000000000      0x528 arch/arm/cpu/armv7/built-in.o
 .debug_ranges  0x0000000000000528      0x2a0 arch/arm/imx-common/built-in.o
 .debug_ranges  0x00000000000007c8      0x238 arch/arm/lib/built-in.o
 .debug_ranges  0x0000000000000a00       0x18 board/freescale/common/built-in.o
 .debug_ranges  0x0000000000000a18       0xf0 board/freescale/mx6sabresd/built-in.o
 .debug_ranges  0x0000000000000b08     0x10c8 cmd/built-in.o
 .debug_ranges  0x0000000000001bd0     0x1ac0 common/built-in.o
 .debug_ranges  0x0000000000003690      0x228 disk/built-in.o
 .debug_ranges  0x00000000000038b8     0x13c0 drivers/built-in.o
 .debug_ranges  0x0000000000004c78       0x50 drivers/gpio/built-in.o
 .debug_ranges  0x0000000000004cc8      0x260 drivers/i2c/built-in.o
 .debug_ranges  0x0000000000004f28      0x498 drivers/mmc/built-in.o
 .debug_ranges  0x00000000000053c0      0x110 drivers/mtd/built-in.o
 .debug_ranges  0x00000000000054d0      0x250 drivers/mtd/spi/built-in.o
 .debug_ranges  0x0000000000005720      0x420 drivers/net/built-in.o
 .debug_ranges  0x0000000000005b40      0x350 drivers/net/phy/built-in.o
 .debug_ranges  0x0000000000005e90      0x3c0 drivers/pci/built-in.o
 .debug_ranges  0x0000000000006250       0x88 drivers/power/built-in.o
 .debug_ranges  0x00000000000062d8       0x10 drivers/power/pmic/built-in.o
 .debug_ranges  0x00000000000062e8      0x108 drivers/serial/built-in.o
 .debug_ranges  0x00000000000063f0      0x140 drivers/spi/built-in.o
 .debug_ranges  0x0000000000006530      0x1c0 drivers/usb/eth/built-in.o
 .debug_ranges  0x00000000000066f0     0x1340 drivers/usb/gadget/built-in.o
 .debug_ranges  0x0000000000007a30      0x298 drivers/usb/host/built-in.o
 .debug_ranges  0x0000000000007cc8      0xac8 fs/built-in.o
 .debug_ranges  0x0000000000008790     0x1820 lib/built-in.o
 .debug_ranges  0x0000000000009fb0      0x7a0 net/built-in.o
 .debug_ranges  0x000000000000a750       0x28 test/dm/built-in.o
 .debug_ranges  0x000000000000a778       0x30 arch/arm/lib/eabi_compat.o
